---
triple:          'arm64-apple-darwin'
binary-path:     '/Users/will/Documents/GitHub/PkBoost/target/release/deps/libpkboost.dylib'
relocations:
  - { offset: 0x160B, size: 0x8, addend: 0x0, symName: __ZN10serde_core2de5Error13missing_field17hf51226d643f03293E, symObjAddr: 0x97AC, symBinAddr: 0xA9CBC, symSize: 0x54 }
  - { offset: 0x1689, size: 0x8, addend: 0x0, symName: __ZN10serde_core2de5Error14invalid_length17he8cc2e9106b8e15bE, symObjAddr: 0x9800, symBinAddr: 0xA9D10, symSize: 0x68 }
  - { offset: 0x172F, size: 0x8, addend: 0x0, symName: __ZN10serde_core2de5Error15duplicate_field17h5968d2ec62083f87E, symObjAddr: 0x9868, symBinAddr: 0xA9D78, symSize: 0x54 }
  - { offset: 0x196A, size: 0x8, addend: 0x0, symName: '__ZN86_$LT$core..marker..PhantomData$LT$T$GT$$u20$as$u20$serde_core..de..DeserializeSeed$GT$11deserialize17h207dcdc5007d63adE', symObjAddr: 0x531E4, symBinAddr: 0x4EE60, symSize: 0xF90 }
  - { offset: 0x390B, size: 0x8, addend: 0x0, symName: '__ZN86_$LT$core..marker..PhantomData$LT$T$GT$$u20$as$u20$serde_core..de..DeserializeSeed$GT$11deserialize17h391c818dbb3e74e4E', symObjAddr: 0x54174, symBinAddr: 0x4FDF0, symSize: 0x120 }
  - { offset: 0x3BDE, size: 0x8, addend: 0x0, symName: '__ZN86_$LT$core..marker..PhantomData$LT$T$GT$$u20$as$u20$serde_core..de..DeserializeSeed$GT$11deserialize17h3b7a736e4d8b844dE', symObjAddr: 0x54294, symBinAddr: 0x4FF10, symSize: 0xF90 }
  - { offset: 0x5DC9, size: 0x8, addend: 0x0, symName: '__ZN86_$LT$core..marker..PhantomData$LT$T$GT$$u20$as$u20$serde_core..de..DeserializeSeed$GT$11deserialize17h411d03c1fc21aeaeE', symObjAddr: 0x55224, symBinAddr: 0x50EA0, symSize: 0x14C }
  - { offset: 0x604A, size: 0x8, addend: 0x0, symName: '__ZN86_$LT$core..marker..PhantomData$LT$T$GT$$u20$as$u20$serde_core..de..DeserializeSeed$GT$11deserialize17h433a87efdfe4b588E', symObjAddr: 0x55370, symBinAddr: 0x50FEC, symSize: 0x250 }
  - { offset: 0x66E4, size: 0x8, addend: 0x0, symName: '__ZN86_$LT$core..marker..PhantomData$LT$T$GT$$u20$as$u20$serde_core..de..DeserializeSeed$GT$11deserialize17h4622877c68c56983E', symObjAddr: 0x555C0, symBinAddr: 0x5123C, symSize: 0x184 }
  - { offset: 0x6A4E, size: 0x8, addend: 0x0, symName: '__ZN86_$LT$core..marker..PhantomData$LT$T$GT$$u20$as$u20$serde_core..de..DeserializeSeed$GT$11deserialize17h480082d1882640e0E', symObjAddr: 0x55744, symBinAddr: 0x513C0, symSize: 0x1EE0 }
  - { offset: 0xA97F, size: 0x8, addend: 0x0, symName: '__ZN86_$LT$core..marker..PhantomData$LT$T$GT$$u20$as$u20$serde_core..de..DeserializeSeed$GT$11deserialize17h486380fe570d7f14E', symObjAddr: 0x57624, symBinAddr: 0x532A0, symSize: 0x1F8 }
  - { offset: 0xAC91, size: 0x8, addend: 0x0, symName: '__ZN86_$LT$core..marker..PhantomData$LT$T$GT$$u20$as$u20$serde_core..de..DeserializeSeed$GT$11deserialize17h4988d6c877cc9e13E', symObjAddr: 0x5781C, symBinAddr: 0x53498, symSize: 0x438 }
  - { offset: 0xB803, size: 0x8, addend: 0x0, symName: '__ZN86_$LT$core..marker..PhantomData$LT$T$GT$$u20$as$u20$serde_core..de..DeserializeSeed$GT$11deserialize17h4c3eb83afe763103E', symObjAddr: 0x57C54, symBinAddr: 0x538D0, symSize: 0x184 }
  - { offset: 0xBA8E, size: 0x8, addend: 0x0, symName: '__ZN86_$LT$core..marker..PhantomData$LT$T$GT$$u20$as$u20$serde_core..de..DeserializeSeed$GT$11deserialize17h6997cb18bb90935eE', symObjAddr: 0x57DD8, symBinAddr: 0x53A54, symSize: 0x24C }
  - { offset: 0xC174, size: 0x8, addend: 0x0, symName: '__ZN86_$LT$core..marker..PhantomData$LT$T$GT$$u20$as$u20$serde_core..de..DeserializeSeed$GT$11deserialize17h88571d4406e0b8b6E', symObjAddr: 0x58024, symBinAddr: 0x53CA0, symSize: 0x1F8 }
  - { offset: 0xC4E3, size: 0x8, addend: 0x0, symName: '__ZN86_$LT$core..marker..PhantomData$LT$T$GT$$u20$as$u20$serde_core..de..DeserializeSeed$GT$11deserialize17ha128be0b24c04933E', symObjAddr: 0x5821C, symBinAddr: 0x53E98, symSize: 0x120 }
  - { offset: 0xC74A, size: 0x8, addend: 0x0, symName: '__ZN86_$LT$core..marker..PhantomData$LT$T$GT$$u20$as$u20$serde_core..de..DeserializeSeed$GT$11deserialize17hae717ded42042ad6E', symObjAddr: 0x5833C, symBinAddr: 0x53FB8, symSize: 0x438 }
  - { offset: 0xD366, size: 0x8, addend: 0x0, symName: '__ZN86_$LT$core..marker..PhantomData$LT$T$GT$$u20$as$u20$serde_core..de..DeserializeSeed$GT$11deserialize17hb07145adfe440a21E', symObjAddr: 0x58774, symBinAddr: 0x543F0, symSize: 0x250 }
  - { offset: 0xDA55, size: 0x8, addend: 0x0, symName: '__ZN86_$LT$core..marker..PhantomData$LT$T$GT$$u20$as$u20$serde_core..de..DeserializeSeed$GT$11deserialize17hba03250c78dce73cE', symObjAddr: 0x589C4, symBinAddr: 0x54640, symSize: 0x300 }
  - { offset: 0xE4D0, size: 0x8, addend: 0x0, symName: '__ZN86_$LT$core..marker..PhantomData$LT$T$GT$$u20$as$u20$serde_core..de..DeserializeSeed$GT$11deserialize17hc27b85d8a95aeb3cE', symObjAddr: 0x58CC4, symBinAddr: 0x54940, symSize: 0x1EE0 }
  - { offset: 0x127DD, size: 0x8, addend: 0x0, symName: '__ZN86_$LT$core..marker..PhantomData$LT$T$GT$$u20$as$u20$serde_core..de..DeserializeSeed$GT$11deserialize17hd1fb674ed7e73ebdE', symObjAddr: 0x5ABA4, symBinAddr: 0x56820, symSize: 0x24C }
  - { offset: 0x12E6E, size: 0x8, addend: 0x0, symName: '__ZN86_$LT$core..marker..PhantomData$LT$T$GT$$u20$as$u20$serde_core..de..DeserializeSeed$GT$11deserialize17hd2763677fddc2ed0E', symObjAddr: 0x5ADF0, symBinAddr: 0x56A6C, symSize: 0x300 }
  - { offset: 0x1384F, size: 0x8, addend: 0x0, symName: '__ZN86_$LT$core..marker..PhantomData$LT$T$GT$$u20$as$u20$serde_core..de..DeserializeSeed$GT$11deserialize17he2f745154fa96628E', symObjAddr: 0x5B0F0, symBinAddr: 0x56D6C, symSize: 0x44C }
  - { offset: 0x1433C, size: 0x8, addend: 0x0, symName: '__ZN86_$LT$core..marker..PhantomData$LT$T$GT$$u20$as$u20$serde_core..de..DeserializeSeed$GT$11deserialize17he735dc484a3b82b9E', symObjAddr: 0x5B53C, symBinAddr: 0x571B8, symSize: 0x44C }
  - { offset: 0x14E8E, size: 0x8, addend: 0x0, symName: '__ZN86_$LT$core..marker..PhantomData$LT$T$GT$$u20$as$u20$serde_core..de..DeserializeSeed$GT$11deserialize17hed11d2f438b924c1E', symObjAddr: 0x5B988, symBinAddr: 0x57604, symSize: 0x14C }
  - { offset: 0x150C0, size: 0x8, addend: 0x0, symName: __ZN10serde_core2de9MapAccess10next_value17h5007a27deb3fe010E, symObjAddr: 0x98BC, symBinAddr: 0x6A34, symSize: 0x544 }
  - { offset: 0x15F73, size: 0x8, addend: 0x0, symName: __ZN10serde_core2de9MapAccess10next_value17hb88d7bc9353c8ee9E, symObjAddr: 0x9E00, symBinAddr: 0x6F78, symSize: 0x544 }
  - { offset: 0x17080, size: 0x8, addend: 0x0, symName: __ZN10serde_core2de9SeqAccess12next_element17h03487bc87067c049E, symObjAddr: 0xA344, symBinAddr: 0x74BC, symSize: 0x8C }
  - { offset: 0x170BA, size: 0x8, addend: 0x0, symName: __ZN10serde_core2de9SeqAccess12next_element17h094eda2c31012182E, symObjAddr: 0xA3D0, symBinAddr: 0x7548, symSize: 0x8C }
  - { offset: 0x170F4, size: 0x8, addend: 0x0, symName: __ZN10serde_core2de9SeqAccess12next_element17h23a77accd245b91dE, symObjAddr: 0xA45C, symBinAddr: 0x75D4, symSize: 0x8C }
  - { offset: 0x1712E, size: 0x8, addend: 0x0, symName: __ZN10serde_core2de9SeqAccess12next_element17h42fdcf0c905edef3E, symObjAddr: 0xA4E8, symBinAddr: 0x7660, symSize: 0x84 }
  - { offset: 0x17168, size: 0x8, addend: 0x0, symName: __ZN10serde_core2de9SeqAccess12next_element17h474fdc06eaa4518aE, symObjAddr: 0xA56C, symBinAddr: 0x76E4, symSize: 0x98 }
  - { offset: 0x171C6, size: 0x8, addend: 0x0, symName: __ZN10serde_core2de9SeqAccess12next_element17h4b46dc288b2cea31E, symObjAddr: 0xA604, symBinAddr: 0x777C, symSize: 0x8C }
  - { offset: 0x17200, size: 0x8, addend: 0x0, symName: __ZN10serde_core2de9SeqAccess12next_element17h5236a02d69f46026E, symObjAddr: 0xA690, symBinAddr: 0x7808, symSize: 0x98 }
  - { offset: 0x1725E, size: 0x8, addend: 0x0, symName: __ZN10serde_core2de9SeqAccess12next_element17h6e8f35a8fba4277eE, symObjAddr: 0xA728, symBinAddr: 0x78A0, symSize: 0x88 }
  - { offset: 0x172BC, size: 0x8, addend: 0x0, symName: __ZN10serde_core2de9SeqAccess12next_element17h8ad018ebf4546770E, symObjAddr: 0xA7B0, symBinAddr: 0x7928, symSize: 0x78 }
  - { offset: 0x17328, size: 0x8, addend: 0x0, symName: __ZN10serde_core2de9SeqAccess12next_element17hab0c9b31095fadc3E, symObjAddr: 0xA828, symBinAddr: 0x79A0, symSize: 0x7C }
  - { offset: 0x173B8, size: 0x8, addend: 0x0, symName: __ZN10serde_core2de9SeqAccess12next_element17habe7b64dda65b512E, symObjAddr: 0xA8A4, symBinAddr: 0x7A1C, symSize: 0x88 }
  - { offset: 0x17416, size: 0x8, addend: 0x0, symName: __ZN10serde_core2de9SeqAccess12next_element17hc80d0970908ca31cE, symObjAddr: 0xA92C, symBinAddr: 0x7AA4, symSize: 0x8C }
  - { offset: 0x17474, size: 0x8, addend: 0x0, symName: __ZN10serde_core2de9SeqAccess12next_element17hd266928dabe29d87E, symObjAddr: 0xA9B8, symBinAddr: 0x7B30, symSize: 0x7C }
  - { offset: 0x17504, size: 0x8, addend: 0x0, symName: __ZN10serde_core2de9SeqAccess12next_element17hd30da1222482b9f3E, symObjAddr: 0xAA34, symBinAddr: 0x7BAC, symSize: 0x84 }
  - { offset: 0x1753E, size: 0x8, addend: 0x0, symName: __ZN10serde_core2de9SeqAccess12next_element17hdcb39f98f3e5e433E, symObjAddr: 0xAAB8, symBinAddr: 0x7C30, symSize: 0x78 }
  - { offset: 0x175AA, size: 0x8, addend: 0x0, symName: __ZN10serde_core2de9SeqAccess12next_element17heb8602d757f32d97E, symObjAddr: 0xAB30, symBinAddr: 0x7CA8, symSize: 0x8C }
  - { offset: 0x179CE, size: 0x8, addend: 0x0, symName: '__ZN46_$LT$T$u20$as$u20$serde_core..de..Expected$GT$3fmt17h08e10d5421de8360E', symObjAddr: 0x11E28, symBinAddr: 0xDFC0, symSize: 0x14 }
  - { offset: 0x17A2F, size: 0x8, addend: 0x0, symName: '__ZN46_$LT$T$u20$as$u20$serde_core..de..Expected$GT$3fmt17h1761c9de7362162eE', symObjAddr: 0x11E3C, symBinAddr: 0xDFD4, symSize: 0x14 }
  - { offset: 0x17A90, size: 0x8, addend: 0x0, symName: '__ZN46_$LT$T$u20$as$u20$serde_core..de..Expected$GT$3fmt17h1a0bfa8bcfe112e8E', symObjAddr: 0x11E50, symBinAddr: 0xDFE8, symSize: 0x14 }
  - { offset: 0x17AF1, size: 0x8, addend: 0x0, symName: '__ZN46_$LT$T$u20$as$u20$serde_core..de..Expected$GT$3fmt17h1c7ad3a0bf19b768E', symObjAddr: 0x11E64, symBinAddr: 0xDFFC, symSize: 0x14 }
  - { offset: 0x17B52, size: 0x8, addend: 0x0, symName: '__ZN46_$LT$T$u20$as$u20$serde_core..de..Expected$GT$3fmt17h2f098985795d91d4E', symObjAddr: 0x11E78, symBinAddr: 0xE010, symSize: 0x14 }
  - { offset: 0x17BB3, size: 0x8, addend: 0x0, symName: '__ZN46_$LT$T$u20$as$u20$serde_core..de..Expected$GT$3fmt17h5f63462ff0411280E', symObjAddr: 0x11E8C, symBinAddr: 0xE024, symSize: 0x14 }
  - { offset: 0x17C14, size: 0x8, addend: 0x0, symName: '__ZN46_$LT$T$u20$as$u20$serde_core..de..Expected$GT$3fmt17h89176c45142d462aE', symObjAddr: 0x11EA0, symBinAddr: 0xE038, symSize: 0x14 }
  - { offset: 0x17C75, size: 0x8, addend: 0x0, symName: '__ZN46_$LT$T$u20$as$u20$serde_core..de..Expected$GT$3fmt17h8d07463e89e56239E', symObjAddr: 0x11EB4, symBinAddr: 0xE04C, symSize: 0x14 }
  - { offset: 0x17CD6, size: 0x8, addend: 0x0, symName: '__ZN46_$LT$T$u20$as$u20$serde_core..de..Expected$GT$3fmt17hb022b4073b3ea82bE', symObjAddr: 0x11EC8, symBinAddr: 0xE060, symSize: 0x14 }
  - { offset: 0x17D37, size: 0x8, addend: 0x0, symName: '__ZN46_$LT$T$u20$as$u20$serde_core..de..Expected$GT$3fmt17hed592f29b86b128bE', symObjAddr: 0x11EDC, symBinAddr: 0xE074, symSize: 0x14 }
  - { offset: 0x1855F, size: 0x8, addend: 0x0, symName: '__ZN10serde_core3ser5impls81_$LT$impl$u20$serde_core..ser..Serialize$u20$for$u20$alloc..vec..Vec$LT$T$GT$$GT$9serialize17hba36f49e531d7998E', symObjAddr: 0xABBC, symBinAddr: 0x7D34, symSize: 0x2EC }
  - { offset: 0x197E3, size: 0x8, addend: 0x0, symName: '__ZN81_$LT$std..io..default_write_fmt..Adapter$LT$T$GT$$u20$as$u20$core..fmt..Write$GT$9write_str17h236d5ba65212ebe5E', symObjAddr: 0x4B17C, symBinAddr: 0x46DF8, symSize: 0x1F0 }
  - { offset: 0x1AAA3, size: 0x8, addend: 0x0, symName: __ZN3std2io5Write9write_fmt17h2e0215c9dd7e0d3cE, symObjAddr: 0x11528, symBinAddr: 0xD8CC, symSize: 0x114 }
  - { offset: 0x1B55C, size: 0x8, addend: 0x0, symName: __ZN3std3sys12thread_local6native4lazy7destroy17hfc0fc8d9234cbbf8E, symObjAddr: 0x11808, symBinAddr: 0xD9E0, symSize: 0x58 }
  - { offset: 0x1B719, size: 0x8, addend: 0x0, symName: __ZN3std3sys12thread_local6native4lazy7destroy17hff17480a2bdd20d0E, symObjAddr: 0x11860, symBinAddr: 0xDA38, symSize: 0x8C }
  - { offset: 0x1BBB4, size: 0x8, addend: 0x0, symName: __ZN3std3sys12thread_local6native5eager7destroy17h4ddff9cbb2112399E, symObjAddr: 0x118EC, symBinAddr: 0xDAC4, symSize: 0x70 }
  - { offset: 0x1C02E, size: 0x8, addend: 0x0, symName: '__ZN103_$LT$std..sys..thread_local..abort_on_dtor_unwind..DtorUnwindGuard$u20$as$u20$core..ops..drop..Drop$GT$4drop17h60e9498fa7cb5bdeE', symObjAddr: 0x570, symBinAddr: 0xA66DC, symSize: 0x3C }
  - { offset: 0x1C18A, size: 0x8, addend: 0x0, symName: '__ZN3std4sync6poison4once4Once15call_once_force28_$u7b$$u7b$closure$u7d$$u7d$17h57b9b64fe94ab053E', symObjAddr: 0x1195C, symBinAddr: 0xDB34, symSize: 0x68 }
  - { offset: 0x1C28C, size: 0x8, addend: 0x0, symName: '__ZN3std4sync6poison4once4Once15call_once_force28_$u7b$$u7b$closure$u7d$$u7d$17ha7ab6c0ff4404052E', symObjAddr: 0x119C4, symBinAddr: 0xDB9C, symSize: 0x408 }
  - { offset: 0x1CD76, size: 0x8, addend: 0x0, symName: '__ZN76_$LT$std..sync..poison..PoisonError$LT$T$GT$$u20$as$u20$core..fmt..Debug$GT$3fmt17h447279f38236ef2eE', symObjAddr: 0x29BF0, symBinAddr: 0x2586C, symSize: 0x34 }
  - { offset: 0x3A743, size: 0x8, addend: 0x0, symName: '__ZN4core3ptr1003drop_in_place$LT$rayon_core..job..StackJob$LT$rayon_core..latch..SpinLatch$C$rayon_core..registry..Registry..in_worker_cross$LT$rayon_core..join..join_context$LT$rayon..iter..plumbing..bridge_producer_consumer..helper$LT$rayon..iter..zip..ZipProducer$LT$rayon..slice..IterMutProducer$LT$f64$GT$$C$rayon..slice..IterProducer$LT$f64$GT$$GT$$C$rayon..iter..for_each..ForEachConsumer$LT$pkboost..model..OptimizedPKBoostShannon..predict_proba..$u7b$$u7b$closure$u7d$$u7d$$GT$$GT$..$u7b$$u7b$closure$u7d$$u7d$$C$rayon..iter..plumbing..bridge_producer_consumer..helper$LT$rayon..iter..zip..ZipProducer$LT$rayon..slice..IterMutProducer$LT$f64$GT$$C$rayon..slice..IterProducer$LT$f64$GT$$GT$$C$rayon..iter..for_each..ForEachConsumer$LT$pkboost..model..OptimizedPKBoostShannon..predict_proba..$u7b$$u7b$closure$u7d$$u7d$$GT$$GT$..$u7b$$u7b$closure$u7d$$u7d$$C$$LP$$RP$$C$$LP$$RP$$GT$..$u7b$$u7b$closure$u7d$$u7d$$C$$LP$$LP$$RP$$C$$LP$$RP$$RP$$GT$..$u7b$$u7b$closure$u7d$$u7d$$C$$LP$$LP$$RP$$C$$LP$$RP$$RP$$GT$$GT$17h57608aca1957e950E', symObjAddr: 0x13950, symBinAddr: 0xFAE8, symSize: 0x7C }
  - { offset: 0x3A94D, size: 0x8, addend: 0x0, symName: '__ZN4core3ptr101drop_in_place$LT$core..result..Result$LT$alloc..vec..Vec$LT$u8$GT$$C$serde_json..error..Error$GT$$GT$17ha749412a392771e3E', symObjAddr: 0x139CC, symBinAddr: 0xFB64, symSize: 0x68 }
  - { offset: 0x3AA48, size: 0x8, addend: 0x0, symName: '__ZN4core3ptr102drop_in_place$LT$core..result..Result$LT$alloc..vec..Vec$LT$f64$GT$$C$serde_json..error..Error$GT$$GT$17h9857047f635fa2baE', symObjAddr: 0x13A34, symBinAddr: 0xFBCC, symSize: 0x60 }
  - { offset: 0x3AB43, size: 0x8, addend: 0x0, symName: '__ZN4core3ptr102drop_in_place$LT$core..result..Result$LT$alloc..vec..Vec$LT$i16$GT$$C$serde_json..error..Error$GT$$GT$17ha28cc90c87a502dbE', symObjAddr: 0x13A94, symBinAddr: 0xFC2C, symSize: 0x68 }
  - { offset: 0x3AC3E, size: 0x8, addend: 0x0, symName: '__ZN4core3ptr1042drop_in_place$LT$rayon_core..job..StackJob$LT$rayon_core..latch..LatchRef$LT$rayon_core..latch..LockLatch$GT$$C$rayon_core..registry..Registry..in_worker_cold$LT$rayon_core..join..join_context$LT$rayon..iter..plumbing..bridge_producer_consumer..helper$LT$rayon..iter..zip..ZipProducer$LT$rayon..slice..IterMutProducer$LT$f64$GT$$C$rayon..slice..IterProducer$LT$f64$GT$$GT$$C$rayon..iter..for_each..ForEachConsumer$LT$pkboost..regression..PKBoostRegressor..fit..$u7b$$u7b$closure$u7d$$u7d$$GT$$GT$..$u7b$$u7b$closure$u7d$$u7d$$C$rayon..iter..plumbing..bridge_producer_consumer..helper$LT$rayon..iter..zip..ZipProducer$LT$rayon..slice..IterMutProducer$LT$f64$GT$$C$rayon..slice..IterProducer$LT$f64$GT$$GT$$C$rayon..iter..for_each..ForEachConsumer$LT$pkboost..regression..PKBoostRegressor..fit..$u7b$$u7b$closure$u7d$$u7d$$GT$$GT$..$u7b$$u7b$closure$u7d$$u7d$$C$$LP$$RP$$C$$LP$$RP$$GT$..$u7b$$u7b$closure$u7d$$u7d$$C$$LP$$LP$$RP$$C$$LP$$RP$$RP$$GT$..$u7b$$u7b$closure$u7d$$u7d$..$u7b$$u7b$closure$u7d$$u7d$$C$$LP$$LP$$RP$$C$$LP$$RP$$RP$$GT$$GT$17h3a03e6b0fbc0863aE', symObjAddr: 0x13AFC, symBinAddr: 0xFC94, symSize: 0x7C }
  - { offset: 0x3AEA5, size: 0x8, addend: 0x0, symName: '__ZN4core3ptr107drop_in_place$LT$pyo3..pyclass_init..PyClassInitializer$LT$numpy..slice_container..PySliceContainer$GT$$GT$17h1c8b88a5e71c0f01E', symObjAddr: 0x13B78, symBinAddr: 0xFD10, symSize: 0x74 }
  - { offset: 0x3B022, size: 0x8, addend: 0x0, symName: '__ZN4core3ptr107drop_in_place$LT$std..sync..poison..PoisonError$LT$std..sync..poison..mutex..MutexGuard$LT$bool$GT$$GT$$GT$17h072a7ce8c3be50bcE', symObjAddr: 0x13BEC, symBinAddr: 0xFD84, symSize: 0x4C }
  - { offset: 0x3B1EE, size: 0x8, addend: 0x0, symName: '__ZN4core3ptr108drop_in_place$LT$alloc..vec..into_iter..IntoIter$LT$$LP$alloc..vec..Vec$LT$f64$GT$$C$usize$C$f64$RP$$GT$$GT$17h665f07e5427e7b93E', symObjAddr: 0x13C38, symBinAddr: 0xFDD0, symSize: 0x90 }
  - { offset: 0x3B52F, size: 0x8, addend: 0x0, symName: '__ZN4core3ptr110drop_in_place$LT$pyo3..pyclass_init..PyClassInitializer$LT$pkboost..python_bindings..PKBoostClassifier$GT$$GT$17hbb2973336f40318cE', symObjAddr: 0x13CC8, symBinAddr: 0xFE60, symSize: 0x7C }
  - { offset: 0x3B67A, size: 0x8, addend: 0x0, symName: '__ZN4core3ptr111drop_in_place$LT$core..result..Result$LT$pkboost..tree..OptimizedTreeShannon$C$serde_json..error..Error$GT$$GT$17h26e8053f7bc65592E', symObjAddr: 0x13D44, symBinAddr: 0xFEDC, symSize: 0x60 }
  - { offset: 0x3B853, size: 0x8, addend: 0x0, symName: '__ZN4core3ptr111drop_in_place$LT$pyo3..pyclass_init..PyClassInitializer$LT$pkboost..python_bindings..PKBoostRegressorPy$GT$$GT$17h78b070314f45b456E', symObjAddr: 0x13DA4, symBinAddr: 0xFF3C, symSize: 0x160 }
  - { offset: 0x3BEC4, size: 0x8, addend: 0x0, symName: '__ZN4core3ptr115drop_in_place$LT$core..result..Result$LT$pkboost..model..OptimizedPKBoostShannon$C$serde_json..error..Error$GT$$GT$17h31178d65122180adE', symObjAddr: 0x13F04, symBinAddr: 0x1009C, symSize: 0x60 }
  - { offset: 0x3C09D, size: 0x8, addend: 0x0, symName: '__ZN4core3ptr1215drop_in_place$LT$rayon_core..job..StackJob$LT$rayon_core..latch..SpinLatch$C$rayon_core..registry..Registry..in_worker_cross$LT$rayon_core..join..join_context$LT$rayon..iter..plumbing..bridge_producer_consumer..helper$LT$rayon..range..IterProducer$LT$usize$GT$$C$rayon..iter..map..MapConsumer$LT$rayon..iter..collect..consumer..CollectConsumer$LT$f64$GT$$C$pkboost..regression..PKBoostRegressor..fit..$u7b$$u7b$closure$u7d$$u7d$$GT$$GT$..$u7b$$u7b$closure$u7d$$u7d$$C$rayon..iter..plumbing..bridge_producer_consumer..helper$LT$rayon..range..IterProducer$LT$usize$GT$$C$rayon..iter..map..MapConsumer$LT$rayon..iter..collect..consumer..CollectConsumer$LT$f64$GT$$C$pkboost..regression..PKBoostRegressor..fit..$u7b$$u7b$closure$u7d$$u7d$$GT$$GT$..$u7b$$u7b$closure$u7d$$u7d$$C$rayon..iter..collect..consumer..CollectResult$LT$f64$GT$$C$rayon..iter..collect..consumer..CollectResult$LT$f64$GT$$GT$..$u7b$$u7b$closure$u7d$$u7d$$C$$LP$rayon..iter..collect..consumer..CollectResult$LT$f64$GT$$C$rayon..iter..collect..consumer..CollectResult$LT$f64$GT$$RP$$GT$..$u7b$$u7b$closure$u7d$$u7d$$C$$LP$rayon..iter..collect..consumer..CollectResult$LT$f64$GT$$C$rayon..iter..collect..consumer..CollectResult$LT$f64$GT$$RP$$GT$$GT$17hdf81154e51741b0aE', symObjAddr: 0x13F64, symBinAddr: 0x100FC, symSize: 0x7C }
  - { offset: 0x3C2A7, size: 0x8, addend: 0x0, symName: '__ZN4core3ptr122drop_in_place$LT$rayon..iter..collect..consumer..CollectResult$LT$$LP$alloc..vec..Vec$LT$f64$GT$$C$usize$C$f64$RP$$GT$$GT$17hff39052c542b7dadE', symObjAddr: 0x13FE0, symBinAddr: 0x10178, symSize: 0x4C }
  - { offset: 0x3C2C3, size: 0x8, addend: 0x0, symName: '__ZN4core3ptr122drop_in_place$LT$rayon..iter..collect..consumer..CollectResult$LT$$LP$alloc..vec..Vec$LT$f64$GT$$C$usize$C$f64$RP$$GT$$GT$17hff39052c542b7dadE', symObjAddr: 0x13FE0, symBinAddr: 0x10178, symSize: 0x4C }
  - { offset: 0x3C2D8, size: 0x8, addend: 0x0, symName: '__ZN4core3ptr122drop_in_place$LT$rayon..iter..collect..consumer..CollectResult$LT$$LP$alloc..vec..Vec$LT$f64$GT$$C$usize$C$f64$RP$$GT$$GT$17hff39052c542b7dadE', symObjAddr: 0x13FE0, symBinAddr: 0x10178, symSize: 0x4C }
  - { offset: 0x3C3C6, size: 0x8, addend: 0x0, symName: '__ZN4core3ptr125drop_in_place$LT$core..result..Result$LT$alloc..vec..Vec$LT$alloc..vec..Vec$LT$f64$GT$$GT$$C$serde_json..error..Error$GT$$GT$17h340a703e87f7ddfaE', symObjAddr: 0x1402C, symBinAddr: 0x101C4, symSize: 0xA8 }
  - { offset: 0x3C647, size: 0x8, addend: 0x0, symName: '__ZN4core3ptr1278drop_in_place$LT$rayon_core..job..StackJob$LT$rayon_core..latch..LatchRef$LT$rayon_core..latch..LockLatch$GT$$C$rayon_core..registry..Registry..in_worker_cold$LT$rayon_core..join..join_context$LT$rayon..iter..plumbing..bridge_producer_consumer..helper$LT$rayon..range..IterProducer$LT$usize$GT$$C$rayon..iter..map..MapConsumer$LT$rayon..iter..collect..consumer..CollectConsumer$LT$f64$GT$$C$pkboost..regression..PKBoostRegressor..fit..$u7b$$u7b$closure$u7d$$u7d$$GT$$GT$..$u7b$$u7b$closure$u7d$$u7d$$C$rayon..iter..plumbing..bridge_producer_consumer..helper$LT$rayon..range..IterProducer$LT$usize$GT$$C$rayon..iter..map..MapConsumer$LT$rayon..iter..collect..consumer..CollectConsumer$LT$f64$GT$$C$pkboost..regression..PKBoostRegressor..fit..$u7b$$u7b$closure$u7d$$u7d$$GT$$GT$..$u7b$$u7b$closure$u7d$$u7d$$C$rayon..iter..collect..consumer..CollectResult$LT$f64$GT$$C$rayon..iter..collect..consumer..CollectResult$LT$f64$GT$$GT$..$u7b$$u7b$closure$u7d$$u7d$$C$$LP$rayon..iter..collect..consumer..CollectResult$LT$f64$GT$$C$rayon..iter..collect..consumer..CollectResult$LT$f64$GT$$RP$$GT$..$u7b$$u7b$closure$u7d$$u7d$..$u7b$$u7b$closure$u7d$$u7d$$C$$LP$rayon..iter..collect..consumer..CollectResult$LT$f64$GT$$C$rayon..iter..collect..consumer..CollectResult$LT$f64$GT$$RP$$GT$$GT$17h2284c1d0d1c66b30E', symObjAddr: 0x140D4, symBinAddr: 0x1026C, symSize: 0x7C }
  - { offset: 0x3C870, size: 0x8, addend: 0x0, symName: '__ZN4core3ptr127drop_in_place$LT$numpy..borrow..PyReadonlyArray$LT$f64$C$ndarray..dimension..dim..Dim$LT$$u5b$usize$u3b$$u20$1$u5d$$GT$$GT$$GT$17he2e4ac89d2dc517eE', symObjAddr: 0x14150, symBinAddr: 0x102E8, symSize: 0x10C }
  - { offset: 0x3CAB3, size: 0x8, addend: 0x0, symName: '__ZN4core3ptr129drop_in_place$LT$core..result..Result$LT$pkboost..histogram_builder..OptimizedHistogramBuilder$C$serde_json..error..Error$GT$$GT$17ha35fdc552590e0d8E', symObjAddr: 0x1425C, symBinAddr: 0x103F4, symSize: 0xE4 }
  - { offset: 0x3CF07, size: 0x8, addend: 0x0, symName: '__ZN4core3ptr133drop_in_place$LT$pyo3..err..PyErr..new$LT$pyo3..exceptions..PyValueError$C$alloc..string..String$GT$..$u7b$$u7b$closure$u7d$$u7d$$GT$17hbf3df85705e4e599E', symObjAddr: 0x14340, symBinAddr: 0x104D8, symSize: 0x18 }
  - { offset: 0x3CFFA, size: 0x8, addend: 0x0, symName: '__ZN4core3ptr134drop_in_place$LT$core..result..Result$LT$alloc..vec..Vec$LT$pkboost..tree..OptimizedTreeShannon$GT$$C$serde_json..error..Error$GT$$GT$17hbbbd361b3b7739e4E', symObjAddr: 0x14358, symBinAddr: 0x104F0, symSize: 0x94 }
  - { offset: 0x3D1B7, size: 0x8, addend: 0x0, symName: '__ZN4core3ptr1357drop_in_place$LT$rayon_core..job..StackJob$LT$rayon_core..latch..SpinLatch$C$rayon_core..registry..Registry..in_worker_cross$LT$rayon_core..join..join_context$LT$rayon..iter..plumbing..bridge_producer_consumer..helper$LT$rayon..iter..zip..ZipProducer$LT$rayon..slice..IterProducer$LT$f64$GT$$C$rayon..slice..IterProducer$LT$f64$GT$$GT$$C$rayon..iter..map..MapConsumer$LT$rayon..iter..collect..consumer..CollectConsumer$LT$f64$GT$$C$pkboost..regression..MSELoss..gradient..$u7b$$u7b$closure$u7d$$u7d$$GT$$GT$..$u7b$$u7b$closure$u7d$$u7d$$C$rayon..iter..plumbing..bridge_producer_consumer..helper$LT$rayon..iter..zip..ZipProducer$LT$rayon..slice..IterProducer$LT$f64$GT$$C$rayon..slice..IterProducer$LT$f64$GT$$GT$$C$rayon..iter..map..MapConsumer$LT$rayon..iter..collect..consumer..CollectConsumer$LT$f64$GT$$C$pkboost..regression..MSELoss..gradient..$u7b$$u7b$closure$u7d$$u7d$$GT$$GT$..$u7b$$u7b$closure$u7d$$u7d$$C$rayon..iter..collect..consumer..CollectResult$LT$f64$GT$$C$rayon..iter..collect..consumer..CollectResult$LT$f64$GT$$GT$..$u7b$$u7b$closure$u7d$$u7d$$C$$LP$rayon..iter..collect..consumer..CollectResult$LT$f64$GT$$C$rayon..iter..collect..consumer..CollectResult$LT$f64$GT$$RP$$GT$..$u7b$$u7b$closure$u7d$$u7d$$C$$LP$rayon..iter..collect..consumer..CollectResult$LT$f64$GT$$C$rayon..iter..collect..consumer..CollectResult$LT$f64$GT$$RP$$GT$$GT$17h920d0be191a8af76E', symObjAddr: 0x143EC, symBinAddr: 0x10584, symSize: 0x7C }
  - { offset: 0x3D3C1, size: 0x8, addend: 0x0, symName: '__ZN4core3ptr141drop_in_place$LT$core..cell..UnsafeCell$LT$rayon_core..job..JobResult$LT$rayon..iter..collect..consumer..CollectResult$LT$f64$GT$$GT$$GT$$GT$17h38ba60f2cedbc66eE', symObjAddr: 0x14468, symBinAddr: 0x10600, symSize: 0x7C }
  - { offset: 0x3D5A1, size: 0x8, addend: 0x0, symName: '__ZN4core3ptr1420drop_in_place$LT$rayon_core..job..StackJob$LT$rayon_core..latch..LatchRef$LT$rayon_core..latch..LockLatch$GT$$C$rayon_core..registry..Registry..in_worker_cold$LT$rayon_core..join..join_context$LT$rayon..iter..plumbing..bridge_producer_consumer..helper$LT$rayon..iter..zip..ZipProducer$LT$rayon..slice..IterProducer$LT$f64$GT$$C$rayon..slice..IterProducer$LT$f64$GT$$GT$$C$rayon..iter..map..MapConsumer$LT$rayon..iter..collect..consumer..CollectConsumer$LT$f64$GT$$C$pkboost..regression..MSELoss..gradient..$u7b$$u7b$closure$u7d$$u7d$$GT$$GT$..$u7b$$u7b$closure$u7d$$u7d$$C$rayon..iter..plumbing..bridge_producer_consumer..helper$LT$rayon..iter..zip..ZipProducer$LT$rayon..slice..IterProducer$LT$f64$GT$$C$rayon..slice..IterProducer$LT$f64$GT$$GT$$C$rayon..iter..map..MapConsumer$LT$rayon..iter..collect..consumer..CollectConsumer$LT$f64$GT$$C$pkboost..regression..MSELoss..gradient..$u7b$$u7b$closure$u7d$$u7d$$GT$$GT$..$u7b$$u7b$closure$u7d$$u7d$$C$rayon..iter..collect..consumer..CollectResult$LT$f64$GT$$C$rayon..iter..collect..consumer..CollectResult$LT$f64$GT$$GT$..$u7b$$u7b$closure$u7d$$u7d$$C$$LP$rayon..iter..collect..consumer..CollectResult$LT$f64$GT$$C$rayon..iter..collect..consumer..CollectResult$LT$f64$GT$$RP$$GT$..$u7b$$u7b$closure$u7d$$u7d$..$u7b$$u7b$closure$u7d$$u7d$$C$$LP$rayon..iter..collect..consumer..CollectResult$LT$f64$GT$$C$rayon..iter..collect..consumer..CollectResult$LT$f64$GT$$RP$$GT$$GT$17hf397bdfd47ddcec9E', symObjAddr: 0x144E4, symBinAddr: 0x1067C, symSize: 0x7C }
  - { offset: 0x3D7AB, size: 0x8, addend: 0x0, symName: '__ZN4core3ptr1483drop_in_place$LT$rayon_core..job..StackJob$LT$rayon_core..latch..SpinLatch$C$rayon_core..registry..Registry..in_worker_cross$LT$rayon_core..join..join_context$LT$rayon..iter..plumbing..bridge_producer_consumer..helper$LT$rayon..iter..zip..ZipProducer$LT$ndarray..parallel..par..ParallelProducer$LT$ndarray..iterators..AxisIterMut$LT$i16$C$ndarray..dimension..dim..Dim$LT$$u5b$usize$u3b$$u20$1$u5d$$GT$$GT$$GT$$C$ndarray..parallel..par..ParallelProducer$LT$ndarray..iterators..AxisIter$LT$f64$C$ndarray..dimension..dim..Dim$LT$$u5b$usize$u3b$$u20$1$u5d$$GT$$GT$$GT$$GT$$C$rayon..iter..for_each..ForEachConsumer$LT$pkboost..histogram_builder..OptimizedHistogramBuilder..transform..$u7b$$u7b$closure$u7d$$u7d$$GT$$GT$..$u7b$$u7b$closure$u7d$$u7d$$C$rayon..iter..plumbing..bridge_producer_consumer..helper$LT$rayon..iter..zip..ZipProducer$LT$ndarray..parallel..par..ParallelProducer$LT$ndarray..iterators..AxisIterMut$LT$i16$C$ndarray..dimension..dim..Dim$LT$$u5b$usize$u3b$$u20$1$u5d$$GT$$GT$$GT$$C$ndarray..parallel..par..ParallelProducer$LT$ndarray..iterators..AxisIter$LT$f64$C$ndarray..dimension..dim..Dim$LT$$u5b$usize$u3b$$u20$1$u5d$$GT$$GT$$GT$$GT$$C$rayon..iter..for_each..ForEachConsumer$LT$pkboost..histogram_builder..OptimizedHistogramBuilder..transform..$u7b$$u7b$closure$u7d$$u7d$$GT$$GT$..$u7b$$u7b$closure$u7d$$u7d$$C$$LP$$RP$$C$$LP$$RP$$GT$..$u7b$$u7b$closure$u7d$$u7d$$C$$LP$$LP$$RP$$C$$LP$$RP$$RP$$GT$..$u7b$$u7b$closure$u7d$$u7d$$C$$LP$$LP$$RP$$C$$LP$$RP$$RP$$GT$$GT$17h875fbe511142e9b4E', symObjAddr: 0x14560, symBinAddr: 0x106F8, symSize: 0x7C }
  - { offset: 0x3D9B5, size: 0x8, addend: 0x0, symName: '__ZN4core3ptr1546drop_in_place$LT$rayon_core..job..StackJob$LT$rayon_core..latch..LatchRef$LT$rayon_core..latch..LockLatch$GT$$C$rayon_core..registry..Registry..in_worker_cold$LT$rayon_core..join..join_context$LT$rayon..iter..plumbing..bridge_producer_consumer..helper$LT$rayon..iter..zip..ZipProducer$LT$ndarray..parallel..par..ParallelProducer$LT$ndarray..iterators..AxisIterMut$LT$i16$C$ndarray..dimension..dim..Dim$LT$$u5b$usize$u3b$$u20$1$u5d$$GT$$GT$$GT$$C$ndarray..parallel..par..ParallelProducer$LT$ndarray..iterators..AxisIter$LT$f64$C$ndarray..dimension..dim..Dim$LT$$u5b$usize$u3b$$u20$1$u5d$$GT$$GT$$GT$$GT$$C$rayon..iter..for_each..ForEachConsumer$LT$pkboost..histogram_builder..OptimizedHistogramBuilder..transform..$u7b$$u7b$closure$u7d$$u7d$$GT$$GT$..$u7b$$u7b$closure$u7d$$u7d$$C$rayon..iter..plumbing..bridge_producer_consumer..helper$LT$rayon..iter..zip..ZipProducer$LT$ndarray..parallel..par..ParallelProducer$LT$ndarray..iterators..AxisIterMut$LT$i16$C$ndarray..dimension..dim..Dim$LT$$u5b$usize$u3b$$u20$1$u5d$$GT$$GT$$GT$$C$ndarray..parallel..par..ParallelProducer$LT$ndarray..iterators..AxisIter$LT$f64$C$ndarray..dimension..dim..Dim$LT$$u5b$usize$u3b$$u20$1$u5d$$GT$$GT$$GT$$GT$$C$rayon..iter..for_each..ForEachConsumer$LT$pkboost..histogram_builder..OptimizedHistogramBuilder..transform..$u7b$$u7b$closure$u7d$$u7d$$GT$$GT$..$u7b$$u7b$closure$u7d$$u7d$$C$$LP$$RP$$C$$LP$$RP$$GT$..$u7b$$u7b$closure$u7d$$u7d$$C$$LP$$LP$$RP$$C$$LP$$RP$$RP$$GT$..$u7b$$u7b$closure$u7d$$u7d$..$u7b$$u7b$closure$u7d$$u7d$$C$$LP$$LP$$RP$$C$$LP$$RP$$RP$$GT$$GT$17hde1ad99be2238e00E', symObjAddr: 0x145DC, symBinAddr: 0x10774, symSize: 0x7C }
  - { offset: 0x3DBDE, size: 0x8, addend: 0x0, symName: '__ZN4core3ptr155drop_in_place$LT$core..option..Option$LT$numpy..borrow..PyReadonlyArray$LT$f64$C$ndarray..dimension..dim..Dim$LT$$u5b$usize$u3b$$u20$1$u5d$$GT$$GT$$GT$$GT$17hc619e0d410cae65dE', symObjAddr: 0x14658, symBinAddr: 0x107F0, symSize: 0x110 }
  - { offset: 0x3DE38, size: 0x8, addend: 0x0, symName: '__ZN4core3ptr156drop_in_place$LT$rayon_core..job..JobResult$LT$rayon..iter..collect..consumer..CollectResult$LT$$LP$alloc..vec..Vec$LT$f64$GT$$C$usize$C$f64$RP$$GT$$GT$$GT$17hf3f9f81e978d8033E', symObjAddr: 0x14768, symBinAddr: 0x10900, symSize: 0xB8 }
  - { offset: 0x3E105, size: 0x8, addend: 0x0, symName: '__ZN4core3ptr1585drop_in_place$LT$rayon_core..job..StackJob$LT$rayon_core..latch..SpinLatch$C$rayon_core..join..join_context..call_b$LT$core..option..Option$LT$$LP$usize$C$pkboost..tree..HistSplitResult$RP$$GT$$C$rayon..iter..plumbing..bridge_producer_consumer..helper$LT$rayon..iter..enumerate..EnumerateProducer$LT$rayon..slice..IterProducer$LT$pkboost..optimized_data..CachedHistogram$GT$$GT$$C$rayon..iter..filter..FilterConsumer$LT$rayon..iter..map..MapConsumer$LT$rayon..iter..fold..FoldConsumer$LT$rayon..iter..reduce..ReduceConsumer$LT$rayon..iter..ParallelIterator..reduce_with..opt_reduce$LT$$LP$usize$C$pkboost..tree..HistSplitResult$RP$$C$$RF$pkboost..tree..find_best_split_across_features_optimized..$u7b$$u7b$closure$u7d$$u7d$$GT$..$u7b$$u7b$closure$u7d$$u7d$$C$$LT$core..option..Option$LT$$LP$usize$C$pkboost..tree..HistSplitResult$RP$$GT$$u20$as$u20$core..default..Default$GT$..default$GT$$C$$LT$core..option..Option$LT$$LP$usize$C$pkboost..tree..HistSplitResult$RP$$GT$$u20$as$u20$core..default..Default$GT$..default$C$rayon..iter..ParallelIterator..reduce_with..opt_fold$LT$$LP$usize$C$pkboost..tree..HistSplitResult$RP$$C$$RF$pkboost..tree..find_best_split_across_features_optimized..$u7b$$u7b$closure$u7d$$u7d$$GT$..$u7b$$u7b$closure$u7d$$u7d$$GT$$C$pkboost..tree..find_best_split_across_features_optimized..$u7b$$u7b$closure$u7d$$u7d$$GT$$C$pkboost..tree..find_best_split_across_features_optimized..$u7b$$u7b$closure$u7d$$u7d$$GT$$GT$..$u7b$$u7b$closure$u7d$$u7d$$GT$..$u7b$$u7b$closure$u7d$$u7d$$C$core..option..Option$LT$$LP$usize$C$pkboost..tree..HistSplitResult$RP$$GT$$GT$$GT$17h0221d9eb62b10639E', symObjAddr: 0x14820, symBinAddr: 0x109B8, symSize: 0x84 }
  - { offset: 0x3E30F, size: 0x8, addend: 0x0, symName: '__ZN4core3ptr159drop_in_place$LT$core..cell..UnsafeCell$LT$rayon_core..job..JobResult$LT$core..option..Option$LT$$LP$usize$C$pkboost..tree..HistSplitResult$RP$$GT$$GT$$GT$$GT$17hae235482c954a10dE', symObjAddr: 0x148A4, symBinAddr: 0x10A3C, symSize: 0x84 }
  - { offset: 0x3E4EF, size: 0x8, addend: 0x0, symName: '__ZN4core3ptr177drop_in_place$LT$core..cell..UnsafeCell$LT$rayon_core..job..JobResult$LT$rayon..iter..collect..consumer..CollectResult$LT$pkboost..model..OptimizedPKBoostShannon$GT$$GT$$GT$$GT$17h0c83c134fb031fe6E', symObjAddr: 0x14928, symBinAddr: 0x10AC0, symSize: 0xA4 }
  - { offset: 0x3E719, size: 0x8, addend: 0x0, symName: '__ZN4core3ptr178drop_in_place$LT$core..cell..UnsafeCell$LT$rayon_core..job..JobResult$LT$rayon..iter..collect..consumer..CollectResult$LT$pkboost..optimized_data..CachedHistogram$GT$$GT$$GT$$GT$17h7ebd5b80fb47076dE', symObjAddr: 0x149CC, symBinAddr: 0x10B64, symSize: 0x104 }
  - { offset: 0x3EE6C, size: 0x8, addend: 0x0, symName: '__ZN4core3ptr211drop_in_place$LT$rayon..iter..collect..consumer..CollectResult$LT$ndarray..ArrayBase$LT$ndarray..data_repr..OwnedRepr$LT$f64$GT$$C$ndarray..dimension..dim..Dim$LT$$u5b$usize$u3b$$u20$1$u5d$$GT$$C$f64$GT$$GT$$GT$17h0cabbd8174f45963E', symObjAddr: 0x14AD0, symBinAddr: 0x10C68, symSize: 0x50 }
  - { offset: 0x3EE88, size: 0x8, addend: 0x0, symName: '__ZN4core3ptr211drop_in_place$LT$rayon..iter..collect..consumer..CollectResult$LT$ndarray..ArrayBase$LT$ndarray..data_repr..OwnedRepr$LT$f64$GT$$C$ndarray..dimension..dim..Dim$LT$$u5b$usize$u3b$$u20$1$u5d$$GT$$C$f64$GT$$GT$$GT$17h0cabbd8174f45963E', symObjAddr: 0x14AD0, symBinAddr: 0x10C68, symSize: 0x50 }
  - { offset: 0x3EE9D, size: 0x8, addend: 0x0, symName: '__ZN4core3ptr211drop_in_place$LT$rayon..iter..collect..consumer..CollectResult$LT$ndarray..ArrayBase$LT$ndarray..data_repr..OwnedRepr$LT$f64$GT$$C$ndarray..dimension..dim..Dim$LT$$u5b$usize$u3b$$u20$1$u5d$$GT$$C$f64$GT$$GT$$GT$17h0cabbd8174f45963E', symObjAddr: 0x14AD0, symBinAddr: 0x10C68, symSize: 0x50 }
  - { offset: 0x3EFE4, size: 0x8, addend: 0x0, symName: '__ZN4core3ptr245drop_in_place$LT$rayon_core..job..JobResult$LT$rayon..iter..collect..consumer..CollectResult$LT$ndarray..ArrayBase$LT$ndarray..data_repr..OwnedRepr$LT$f64$GT$$C$ndarray..dimension..dim..Dim$LT$$u5b$usize$u3b$$u20$1$u5d$$GT$$C$f64$GT$$GT$$GT$$GT$17hcd13335333411145E', symObjAddr: 0x14B20, symBinAddr: 0x10CB8, symSize: 0xBC }
  - { offset: 0x3F329, size: 0x8, addend: 0x0, symName: '__ZN4core3ptr250drop_in_place$LT$rayon_core..job..JobResult$LT$$LP$rayon..iter..collect..consumer..CollectResult$LT$pkboost..model..OptimizedPKBoostShannon$GT$$C$rayon..iter..collect..consumer..CollectResult$LT$pkboost..model..OptimizedPKBoostShannon$GT$$RP$$GT$$GT$17h2c466c60166018a4E', symObjAddr: 0x14BDC, symBinAddr: 0x10D74, symSize: 0xD4 }
  - { offset: 0x3F5D7, size: 0x8, addend: 0x0, symName: '__ZN4core3ptr252drop_in_place$LT$rayon_core..job..JobResult$LT$$LP$rayon..iter..collect..consumer..CollectResult$LT$pkboost..optimized_data..CachedHistogram$GT$$C$rayon..iter..collect..consumer..CollectResult$LT$pkboost..optimized_data..CachedHistogram$GT$$RP$$GT$$GT$17h6ff2d0381ab27c2eE', symObjAddr: 0x14CB0, symBinAddr: 0x10E48, symSize: 0x190 }
  - { offset: 0x402D7, size: 0x8, addend: 0x0, symName: '__ZN4core3ptr268drop_in_place$LT$rayon_core..job..JobResult$LT$$LP$rayon..iter..collect..consumer..CollectResult$LT$$LP$alloc..vec..Vec$LT$f64$GT$$C$usize$C$f64$RP$$GT$$C$rayon..iter..collect..consumer..CollectResult$LT$$LP$alloc..vec..Vec$LT$f64$GT$$C$usize$C$f64$RP$$GT$$RP$$GT$$GT$17h9f853e4cf76a40f3E', symObjAddr: 0x14E40, symBinAddr: 0x10FD8, symSize: 0xF8 }
  - { offset: 0x40718, size: 0x8, addend: 0x0, symName: '__ZN4core3ptr3259drop_in_place$LT$rayon_core..job..StackJob$LT$rayon_core..latch..SpinLatch$C$rayon_core..registry..Registry..in_worker_cross$LT$rayon_core..join..join_context$LT$rayon..iter..plumbing..bridge_producer_consumer..helper$LT$rayon..iter..enumerate..EnumerateProducer$LT$rayon..slice..IterProducer$LT$pkboost..optimized_data..CachedHistogram$GT$$GT$$C$rayon..iter..filter..FilterConsumer$LT$rayon..iter..map..MapConsumer$LT$rayon..iter..fold..FoldConsumer$LT$rayon..iter..reduce..ReduceConsumer$LT$rayon..iter..ParallelIterator..reduce_with..opt_reduce$LT$$LP$usize$C$pkboost..tree..HistSplitResult$RP$$C$$RF$pkboost..tree..find_best_split_across_features_optimized..$u7b$$u7b$closure$u7d$$u7d$$GT$..$u7b$$u7b$closure$u7d$$u7d$$C$$LT$core..option..Option$LT$$LP$usize$C$pkboost..tree..HistSplitResult$RP$$GT$$u20$as$u20$core..default..Default$GT$..default$GT$$C$$LT$core..option..Option$LT$$LP$usize$C$pkboost..tree..HistSplitResult$RP$$GT$$u20$as$u20$core..default..Default$GT$..default$C$rayon..iter..ParallelIterator..reduce_with..opt_fold$LT$$LP$usize$C$pkboost..tree..HistSplitResult$RP$$C$$RF$pkboost..tree..find_best_split_across_features_optimized..$u7b$$u7b$closure$u7d$$u7d$$GT$..$u7b$$u7b$closure$u7d$$u7d$$GT$$C$pkboost..tree..find_best_split_across_features_optimized..$u7b$$u7b$closure$u7d$$u7d$$GT$$C$pkboost..tree..find_best_split_across_features_optimized..$u7b$$u7b$closure$u7d$$u7d$$GT$$GT$..$u7b$$u7b$closure$u7d$$u7d$$C$rayon..iter..plumbing..bridge_producer_consumer..helper$LT$rayon..iter..enumerate..EnumerateProducer$LT$rayon..slice..IterProducer$LT$pkboost..optimized_data..CachedHistogram$GT$$GT$$C$rayon..iter..filter..FilterConsumer$LT$rayon..iter..map..MapConsumer$LT$rayon..iter..fold..FoldConsumer$LT$rayon..iter..reduce..ReduceConsumer$LT$rayon..iter..ParallelIterator..reduce_with..opt_reduce$LT$$LP$usize$C$pkboost..tree..HistSplitResult$RP$$C$$RF$pkboost..tree..find_best_split_across_features_optimized..$u7b$$u7b$closure$u7d$$u7d$$GT$..$u7b$$u7b$closure$u7d$$u7d$$C$$LT$core..option..Option$LT$$LP$usize$C$pkboost..tree..HistSplitResult$RP$$GT$$u20$as$u20$core..default..Default$GT$..default$GT$$C$$LT$core..option..Option$LT$$LP$usize$C$pkboost..tree..HistSplitResult$RP$$GT$$u20$as$u20$core..default..Default$GT$..default$C$rayon..iter..ParallelIterator..reduce_with..opt_fold$LT$$LP$usize$C$pkboost..tree..HistSplitResult$RP$$C$$RF$pkboost..tree..find_best_split_across_features_optimized..$u7b$$u7b$closure$u7d$$u7d$$GT$..$u7b$$u7b$closure$u7d$$u7d$$GT$$C$pkboost..tree..find_best_split_across_features_optimized..$u7b$$u7b$closure$u7d$$u7d$$GT$$C$pkboost..tree..find_best_split_across_features_optimized..$u7b$$u7b$closure$u7d$$u7d$$GT$$GT$..$u7b$$u7b$closure$u7d$$u7d$$C$core..option..Option$LT$$LP$usize$C$pkboost..tree..HistSplitResult$RP$$GT$$C$core..option..Option$LT$$LP$usize$C$pkboost..tree..HistSplitResult$RP$$GT$$GT$..$u7b$$u7b$closure$u7d$$u7d$$C$$LP$core..option..Option$LT$$LP$usize$C$pkboost..tree..HistSplitResult$RP$$GT$$C$core..option..Option$LT$$LP$usize$C$pkboost..tree..HistSplitResult$RP$$GT$$RP$$GT$..$u7b$$u7b$closure$u7d$$u7d$$C$$LP$core..option..Option$LT$$LP$usize$C$pkboost..tree..HistSplitResult$RP$$GT$$C$core..option..Option$LT$$LP$usize$C$pkboost..tree..HistSplitResult$RP$$GT$$RP$$GT$$GT$17haae2cf7c6c325280E', symObjAddr: 0x14F38, symBinAddr: 0x110D0, symSize: 0x84 }
  - { offset: 0x40922, size: 0x8, addend: 0x0, symName: '__ZN4core3ptr3322drop_in_place$LT$rayon_core..job..StackJob$LT$rayon_core..latch..LatchRef$LT$rayon_core..latch..LockLatch$GT$$C$rayon_core..registry..Registry..in_worker_cold$LT$rayon_core..join..join_context$LT$rayon..iter..plumbing..bridge_producer_consumer..helper$LT$rayon..iter..enumerate..EnumerateProducer$LT$rayon..slice..IterProducer$LT$pkboost..optimized_data..CachedHistogram$GT$$GT$$C$rayon..iter..filter..FilterConsumer$LT$rayon..iter..map..MapConsumer$LT$rayon..iter..fold..FoldConsumer$LT$rayon..iter..reduce..ReduceConsumer$LT$rayon..iter..ParallelIterator..reduce_with..opt_reduce$LT$$LP$usize$C$pkboost..tree..HistSplitResult$RP$$C$$RF$pkboost..tree..find_best_split_across_features_optimized..$u7b$$u7b$closure$u7d$$u7d$$GT$..$u7b$$u7b$closure$u7d$$u7d$$C$$LT$core..option..Option$LT$$LP$usize$C$pkboost..tree..HistSplitResult$RP$$GT$$u20$as$u20$core..default..Default$GT$..default$GT$$C$$LT$core..option..Option$LT$$LP$usize$C$pkboost..tree..HistSplitResult$RP$$GT$$u20$as$u20$core..default..Default$GT$..default$C$rayon..iter..ParallelIterator..reduce_with..opt_fold$LT$$LP$usize$C$pkboost..tree..HistSplitResult$RP$$C$$RF$pkboost..tree..find_best_split_across_features_optimized..$u7b$$u7b$closure$u7d$$u7d$$GT$..$u7b$$u7b$closure$u7d$$u7d$$GT$$C$pkboost..tree..find_best_split_across_features_optimized..$u7b$$u7b$closure$u7d$$u7d$$GT$$C$pkboost..tree..find_best_split_across_features_optimized..$u7b$$u7b$closure$u7d$$u7d$$GT$$GT$..$u7b$$u7b$closure$u7d$$u7d$$C$rayon..iter..plumbing..bridge_producer_consumer..helper$LT$rayon..iter..enumerate..EnumerateProducer$LT$rayon..slice..IterProducer$LT$pkboost..optimized_data..CachedHistogram$GT$$GT$$C$rayon..iter..filter..FilterConsumer$LT$rayon..iter..map..MapConsumer$LT$rayon..iter..fold..FoldConsumer$LT$rayon..iter..reduce..ReduceConsumer$LT$rayon..iter..ParallelIterator..reduce_with..opt_reduce$LT$$LP$usize$C$pkboost..tree..HistSplitResult$RP$$C$$RF$pkboost..tree..find_best_split_across_features_optimized..$u7b$$u7b$closure$u7d$$u7d$$GT$..$u7b$$u7b$closure$u7d$$u7d$$C$$LT$core..option..Option$LT$$LP$usize$C$pkboost..tree..HistSplitResult$RP$$GT$$u20$as$u20$core..default..Default$GT$..default$GT$$C$$LT$core..option..Option$LT$$LP$usize$C$pkboost..tree..HistSplitResult$RP$$GT$$u20$as$u20$core..default..Default$GT$..default$C$rayon..iter..ParallelIterator..reduce_with..opt_fold$LT$$LP$usize$C$pkboost..tree..HistSplitResult$RP$$C$$RF$pkboost..tree..find_best_split_across_features_optimized..$u7b$$u7b$closure$u7d$$u7d$$GT$..$u7b$$u7b$closure$u7d$$u7d$$GT$$C$pkboost..tree..find_best_split_across_features_optimized..$u7b$$u7b$closure$u7d$$u7d$$GT$$C$pkboost..tree..find_best_split_across_features_optimized..$u7b$$u7b$closure$u7d$$u7d$$GT$$GT$..$u7b$$u7b$closure$u7d$$u7d$$C$core..option..Option$LT$$LP$usize$C$pkboost..tree..HistSplitResult$RP$$GT$$C$core..option..Option$LT$$LP$usize$C$pkboost..tree..HistSplitResult$RP$$GT$$GT$..$u7b$$u7b$closure$u7d$$u7d$$C$$LP$core..option..Option$LT$$LP$usize$C$pkboost..tree..HistSplitResult$RP$$GT$$C$core..option..Option$LT$$LP$usize$C$pkboost..tree..HistSplitResult$RP$$GT$$RP$$GT$..$u7b$$u7b$closure$u7d$$u7d$..$u7b$$u7b$closure$u7d$$u7d$$C$$LP$core..option..Option$LT$$LP$usize$C$pkboost..tree..HistSplitResult$RP$$GT$$C$core..option..Option$LT$$LP$usize$C$pkboost..tree..HistSplitResult$RP$$GT$$RP$$GT$$GT$17h70fbe759ce43c0e8E', symObjAddr: 0x14FBC, symBinAddr: 0x11154, symSize: 0x84 }
  - { offset: 0x40B2C, size: 0x8, addend: 0x0, symName: '__ZN4core3ptr334drop_in_place$LT$core..option..Option$LT$$LP$ndarray..ArrayBase$LT$ndarray..data_repr..OwnedRepr$LT$f64$GT$$C$ndarray..dimension..dim..Dim$LT$$u5b$usize$u3b$$u20$2$u5d$$GT$$C$f64$GT$$C$ndarray..ArrayBase$LT$ndarray..data_repr..OwnedRepr$LT$f64$GT$$C$ndarray..dimension..dim..Dim$LT$$u5b$usize$u3b$$u20$1$u5d$$GT$$C$f64$GT$$RP$$GT$$GT$17h34a00f26a73c0802E', symObjAddr: 0x15040, symBinAddr: 0x111D8, symSize: 0x58 }
  - { offset: 0x40F78, size: 0x8, addend: 0x0, symName: '__ZN4core3ptr37drop_in_place$LT$pyo3..err..PyErr$GT$17h2a3b6e6e8decc794E', symObjAddr: 0x15098, symBinAddr: 0x11230, symSize: 0x188 }
  - { offset: 0x4158E, size: 0x8, addend: 0x0, symName: '__ZN4core3ptr436drop_in_place$LT$rayon_core..job..StackJob$LT$rayon_core..latch..SpinLatch$C$rayon_core..join..join_context..call_b$LT$$LP$$RP$$C$rayon..iter..plumbing..bridge_producer_consumer..helper$LT$rayon..slice..IterMutProducer$LT$f64$GT$$C$rayon..iter..for_each..ForEachConsumer$LT$pkboost..model..OptimizedPKBoostShannon..fit..$u7b$$u7b$closure$u7d$$u7d$$GT$$GT$..$u7b$$u7b$closure$u7d$$u7d$$GT$..$u7b$$u7b$closure$u7d$$u7d$$C$$LP$$RP$$GT$$GT$17hbecc6e6964aa0f31E', symObjAddr: 0x15220, symBinAddr: 0x113B8, symSize: 0x7C }
  - { offset: 0x417B7, size: 0x8, addend: 0x0, symName: '__ZN4core3ptr446drop_in_place$LT$rayon_core..job..JobResult$LT$$LP$rayon..iter..collect..consumer..CollectResult$LT$ndarray..ArrayBase$LT$ndarray..data_repr..OwnedRepr$LT$f64$GT$$C$ndarray..dimension..dim..Dim$LT$$u5b$usize$u3b$$u20$1$u5d$$GT$$C$f64$GT$$GT$$C$rayon..iter..collect..consumer..CollectResult$LT$ndarray..ArrayBase$LT$ndarray..data_repr..OwnedRepr$LT$f64$GT$$C$ndarray..dimension..dim..Dim$LT$$u5b$usize$u3b$$u20$1$u5d$$GT$$C$f64$GT$$GT$$RP$$GT$$GT$17he1dc573a814a7ec8E', symObjAddr: 0x1529C, symBinAddr: 0x11434, symSize: 0x100 }
  - { offset: 0x41CC9, size: 0x8, addend: 0x0, symName: '__ZN4core3ptr45drop_in_place$LT$pkboost..tree..SplitTask$GT$17hb38c5dbf32bd362eE', symObjAddr: 0x1539C, symBinAddr: 0x11534, symSize: 0xE4 }
  - { offset: 0x42438, size: 0x8, addend: 0x0, symName: '__ZN4core3ptr45drop_in_place$LT$serde_json..error..Error$GT$17h2a7d7e2a4afee989E', symObjAddr: 0x15480, symBinAddr: 0x11618, symSize: 0x40 }
  - { offset: 0x425B6, size: 0x8, addend: 0x0, symName: '__ZN4core3ptr487drop_in_place$LT$rayon_core..job..StackJob$LT$rayon_core..latch..SpinLatch$C$rayon_core..join..join_context..call_b$LT$$LP$$RP$$C$rayon..iter..plumbing..bridge_producer_consumer..helper$LT$rayon..iter..enumerate..EnumerateProducer$LT$rayon..slice..IterMutProducer$LT$f64$GT$$GT$$C$rayon..iter..for_each..ForEachConsumer$LT$pkboost..regression..PKBoostRegressor..predict..$u7b$$u7b$closure$u7d$$u7d$$GT$$GT$..$u7b$$u7b$closure$u7d$$u7d$$GT$..$u7b$$u7b$closure$u7d$$u7d$$C$$LP$$RP$$GT$$GT$17h4d91060bfed91aeaE', symObjAddr: 0x154C0, symBinAddr: 0x11658, symSize: 0x7C }
  - { offset: 0x427C0, size: 0x8, addend: 0x0, symName: '__ZN4core3ptr50drop_in_place$LT$crossbeam_epoch..guard..Guard$GT$17h1b9d2e2e4a2cb220E', symObjAddr: 0x1553C, symBinAddr: 0x116D4, symSize: 0x2C }
  - { offset: 0x427FB, size: 0x8, addend: 0x0, symName: '__ZN4core3ptr50drop_in_place$LT$crossbeam_epoch..guard..Guard$GT$17h1b9d2e2e4a2cb220E', symObjAddr: 0x1553C, symBinAddr: 0x116D4, symSize: 0x2C }
  - { offset: 0x42984, size: 0x8, addend: 0x0, symName: '__ZN4core3ptr511drop_in_place$LT$rayon_core..job..StackJob$LT$rayon_core..latch..SpinLatch$C$rayon_core..join..join_context..call_b$LT$$LP$$RP$$C$rayon..iter..plumbing..bridge_producer_consumer..helper$LT$rayon..iter..zip..ZipProducer$LT$rayon..slice..IterMutProducer$LT$f64$GT$$C$rayon..slice..IterProducer$LT$f64$GT$$GT$$C$rayon..iter..for_each..ForEachConsumer$LT$pkboost..regression..PKBoostRegressor..fit..$u7b$$u7b$closure$u7d$$u7d$$GT$$GT$..$u7b$$u7b$closure$u7d$$u7d$$GT$..$u7b$$u7b$closure$u7d$$u7d$$C$$LP$$RP$$GT$$GT$17h19f359909906c52aE', symObjAddr: 0x15568, symBinAddr: 0x11700, symSize: 0x7C }
  - { offset: 0x42BAD, size: 0x8, addend: 0x0, symName: '__ZN4core3ptr55drop_in_place$LT$$u5b$pkboost..tree..SplitTask$u5d$$GT$17h72fd30c28450c493E', symObjAddr: 0x155E4, symBinAddr: 0x1177C, symSize: 0x118 }
  - { offset: 0x43384, size: 0x8, addend: 0x0, symName: '__ZN4core3ptr56drop_in_place$LT$pkboost..tree..OptimizedTreeShannon$GT$17h9f07adb8a2cd01ecE', symObjAddr: 0x156FC, symBinAddr: 0x11894, symSize: 0xC4 }
  - { offset: 0x43A61, size: 0x8, addend: 0x0, symName: '__ZN4core3ptr57drop_in_place$LT$pkboost..tree..TreeBuildingWorkspace$GT$17h5aaf917c1aa1ea3dE', symObjAddr: 0x157C0, symBinAddr: 0x11958, symSize: 0x228 }
  - { offset: 0x4470A, size: 0x8, addend: 0x0, symName: '__ZN4core3ptr581drop_in_place$LT$rayon_core..job..StackJob$LT$rayon_core..latch..SpinLatch$C$rayon_core..join..join_context..call_b$LT$rayon..iter..collect..consumer..CollectResult$LT$f64$GT$$C$rayon..iter..plumbing..bridge_producer_consumer..helper$LT$rayon..range..IterProducer$LT$usize$GT$$C$rayon..iter..map..MapConsumer$LT$rayon..iter..collect..consumer..CollectConsumer$LT$f64$GT$$C$pkboost..regression..PKBoostRegressor..fit..$u7b$$u7b$closure$u7d$$u7d$$GT$$GT$..$u7b$$u7b$closure$u7d$$u7d$$GT$..$u7b$$u7b$closure$u7d$$u7d$$C$rayon..iter..collect..consumer..CollectResult$LT$f64$GT$$GT$$GT$17h9d2b05362ee8d893E', symObjAddr: 0x159E8, symBinAddr: 0x11B80, symSize: 0x7C }
  - { offset: 0x44914, size: 0x8, addend: 0x0, symName: '__ZN4core3ptr58drop_in_place$LT$pkboost..regression..PKBoostRegressor$GT$17h3be57155d21aa47dE', symObjAddr: 0x15A64, symBinAddr: 0x11BFC, symSize: 0xEC }
  - { offset: 0x44E9B, size: 0x8, addend: 0x0, symName: '__ZN4core3ptr60drop_in_place$LT$pkboost..model..OptimizedPKBoostShannon$GT$17h35f639dea41019a2E', symObjAddr: 0x15B50, symBinAddr: 0x11CE8, symSize: 0x11C }
  - { offset: 0x455F1, size: 0x8, addend: 0x0, symName: '__ZN4core3ptr61drop_in_place$LT$pkboost..optimized_data..CachedHistogram$GT$17h79a6effbcb708996E', symObjAddr: 0x15C6C, symBinAddr: 0x11E04, symSize: 0x84 }
  - { offset: 0x45B8F, size: 0x8, addend: 0x0, symName: '__ZN4core3ptr652drop_in_place$LT$rayon_core..job..StackJob$LT$rayon_core..latch..SpinLatch$C$rayon_core..join..join_context..call_b$LT$rayon..iter..collect..consumer..CollectResult$LT$f64$GT$$C$rayon..iter..plumbing..bridge_producer_consumer..helper$LT$rayon..iter..zip..ZipProducer$LT$rayon..slice..IterProducer$LT$f64$GT$$C$rayon..slice..IterProducer$LT$f64$GT$$GT$$C$rayon..iter..map..MapConsumer$LT$rayon..iter..collect..consumer..CollectConsumer$LT$f64$GT$$C$pkboost..regression..MSELoss..gradient..$u7b$$u7b$closure$u7d$$u7d$$GT$$GT$..$u7b$$u7b$closure$u7d$$u7d$$GT$..$u7b$$u7b$closure$u7d$$u7d$$C$rayon..iter..collect..consumer..CollectResult$LT$f64$GT$$GT$$GT$17ha6cf3e6b7ceae5bcE', symObjAddr: 0x15CF0, symBinAddr: 0x11E88, symSize: 0x7C }
  - { offset: 0x45D99, size: 0x8, addend: 0x0, symName: '__ZN4core3ptr65drop_in_place$LT$pkboost..python_bindings..PKBoostRegressorPy$GT$17h9c1ff1d749851343E', symObjAddr: 0x15D6C, symBinAddr: 0x11F04, symSize: 0xF8 }
  - { offset: 0x462E2, size: 0x8, addend: 0x0, symName: '__ZN4core3ptr66drop_in_place$LT$pkboost..python_bindings..PKBoostMultiClassPy$GT$17hd231df689f835086E', symObjAddr: 0x15E64, symBinAddr: 0x11FFC, symSize: 0x6C }
  - { offset: 0x464CC, size: 0x8, addend: 0x0, symName: '__ZN4core3ptr68drop_in_place$LT$std..collections..hash..set..HashSet$LT$u64$GT$$GT$17h8b14a80ccda839edE', symObjAddr: 0x15ED0, symBinAddr: 0x12068, symSize: 0x28 }
  - { offset: 0x464E8, size: 0x8, addend: 0x0, symName: '__ZN4core3ptr68drop_in_place$LT$std..collections..hash..set..HashSet$LT$u64$GT$$GT$17h8b14a80ccda839edE', symObjAddr: 0x15ED0, symBinAddr: 0x12068, symSize: 0x28 }
  - { offset: 0x464FD, size: 0x8, addend: 0x0, symName: '__ZN4core3ptr68drop_in_place$LT$std..collections..hash..set..HashSet$LT$u64$GT$$GT$17h8b14a80ccda839edE', symObjAddr: 0x15ED0, symBinAddr: 0x12068, symSize: 0x28 }
  - { offset: 0x46512, size: 0x8, addend: 0x0, symName: '__ZN4core3ptr68drop_in_place$LT$std..collections..hash..set..HashSet$LT$u64$GT$$GT$17h8b14a80ccda839edE', symObjAddr: 0x15ED0, symBinAddr: 0x12068, symSize: 0x28 }
  - { offset: 0x46527, size: 0x8, addend: 0x0, symName: '__ZN4core3ptr68drop_in_place$LT$std..collections..hash..set..HashSet$LT$u64$GT$$GT$17h8b14a80ccda839edE', symObjAddr: 0x15ED0, symBinAddr: 0x12068, symSize: 0x28 }
  - { offset: 0x4653C, size: 0x8, addend: 0x0, symName: '__ZN4core3ptr68drop_in_place$LT$std..collections..hash..set..HashSet$LT$u64$GT$$GT$17h8b14a80ccda839edE', symObjAddr: 0x15ED0, symBinAddr: 0x12068, symSize: 0x28 }
  - { offset: 0x466BC, size: 0x8, addend: 0x0, symName: '__ZN4core3ptr690drop_in_place$LT$rayon_core..job..StackJob$LT$rayon_core..latch..SpinLatch$C$rayon_core..join..join_context..call_b$LT$rayon..iter..collect..consumer..CollectResult$LT$pkboost..model..OptimizedPKBoostShannon$GT$$C$rayon..iter..plumbing..bridge_producer_consumer..helper$LT$rayon..range..IterProducer$LT$usize$GT$$C$rayon..iter..map..MapConsumer$LT$rayon..iter..collect..consumer..CollectConsumer$LT$pkboost..model..OptimizedPKBoostShannon$GT$$C$pkboost..multiclass..MultiClassPKBoost..fit..$u7b$$u7b$closure$u7d$$u7d$$GT$$GT$..$u7b$$u7b$closure$u7d$$u7d$$GT$..$u7b$$u7b$closure$u7d$$u7d$$C$rayon..iter..collect..consumer..CollectResult$LT$pkboost..model..OptimizedPKBoostShannon$GT$$GT$$GT$17h5ed1ef1903ead47dE', symObjAddr: 0x15EF8, symBinAddr: 0x12090, symSize: 0xA4 }
  - { offset: 0x46910, size: 0x8, addend: 0x0, symName: '__ZN4core3ptr70drop_in_place$LT$alloc..vec..Vec$LT$alloc..vec..Vec$LT$f64$GT$$GT$$GT$17h3fb92b18abce67eaE', symObjAddr: 0x15F9C, symBinAddr: 0x12134, symSize: 0x78 }
  - { offset: 0x46BFC, size: 0x8, addend: 0x0, symName: '__ZN4core3ptr70drop_in_place$LT$pkboost..living_booster..AdversarialLivingBooster$GT$17h927e5e9f7c78ec7dE', symObjAddr: 0x16014, symBinAddr: 0x121AC, symSize: 0xA0 }
  - { offset: 0x47050, size: 0x8, addend: 0x0, symName: '__ZN4core3ptr735drop_in_place$LT$rayon_core..job..StackJob$LT$rayon_core..latch..SpinLatch$C$rayon_core..join..join_context..call_b$LT$rayon..iter..collect..consumer..CollectResult$LT$pkboost..optimized_data..CachedHistogram$GT$$C$rayon..iter..plumbing..bridge_producer_consumer..helper$LT$rayon..iter..enumerate..EnumerateProducer$LT$rayon..slice..IterProducer$LT$usize$GT$$GT$$C$rayon..iter..map..MapConsumer$LT$rayon..iter..collect..consumer..CollectConsumer$LT$pkboost..optimized_data..CachedHistogram$GT$$C$pkboost..tree..build_hists_optimized..$u7b$$u7b$closure$u7d$$u7d$$GT$$GT$..$u7b$$u7b$closure$u7d$$u7d$$GT$..$u7b$$u7b$closure$u7d$$u7d$$C$rayon..iter..collect..consumer..CollectResult$LT$pkboost..optimized_data..CachedHistogram$GT$$GT$$GT$17h15496e29be1020a2E', symObjAddr: 0x160B4, symBinAddr: 0x1224C, symSize: 0x104 }
  - { offset: 0x477CD, size: 0x8, addend: 0x0, symName: '__ZN4core3ptr74drop_in_place$LT$pkboost..histogram_builder..OptimizedHistogramBuilder$GT$17h4ae4f42f5580bbc9E', symObjAddr: 0x161B8, symBinAddr: 0x12350, symSize: 0xA0 }
  - { offset: 0x47B6A, size: 0x8, addend: 0x0, symName: '__ZN4core3ptr763drop_in_place$LT$rayon_core..job..StackJob$LT$rayon_core..latch..SpinLatch$C$rayon_core..join..join_context..call_b$LT$$LP$$RP$$C$rayon..iter..plumbing..bridge_producer_consumer..helper$LT$rayon..iter..zip..ZipProducer$LT$ndarray..parallel..par..ParallelProducer$LT$ndarray..iterators..AxisIterMut$LT$i16$C$ndarray..dimension..dim..Dim$LT$$u5b$usize$u3b$$u20$1$u5d$$GT$$GT$$GT$$C$ndarray..parallel..par..ParallelProducer$LT$ndarray..iterators..AxisIter$LT$f64$C$ndarray..dimension..dim..Dim$LT$$u5b$usize$u3b$$u20$1$u5d$$GT$$GT$$GT$$GT$$C$rayon..iter..for_each..ForEachConsumer$LT$pkboost..histogram_builder..OptimizedHistogramBuilder..transform..$u7b$$u7b$closure$u7d$$u7d$$GT$$GT$..$u7b$$u7b$closure$u7d$$u7d$$GT$..$u7b$$u7b$closure$u7d$$u7d$$C$$LP$$RP$$GT$$GT$17h462aea39b341837cE', symObjAddr: 0x16258, symBinAddr: 0x123F0, symSize: 0x7C }
  - { offset: 0x47D74, size: 0x8, addend: 0x0, symName: '__ZN4core3ptr79drop_in_place$LT$alloc..vec..Vec$LT$pkboost..tree..OptimizedTreeShannon$GT$$GT$17h0c3dd5a59fff67a4E', symObjAddr: 0x162D4, symBinAddr: 0x1246C, symSize: 0x64 }
  - { offset: 0x47EA4, size: 0x8, addend: 0x0, symName: '__ZN4core3ptr81drop_in_place$LT$core..result..Result$LT$$LP$$RP$$C$std..io..error..Error$GT$$GT$17h4c3c0d3fbcc26b00E', symObjAddr: 0x16338, symBinAddr: 0x124D0, symSize: 0xA8 }
  - { offset: 0x48212, size: 0x8, addend: 0x0, symName: '__ZN4core3ptr829drop_in_place$LT$rayon_core..job..StackJob$LT$rayon_core..latch..SpinLatch$C$rayon_core..registry..Registry..in_worker_cross$LT$rayon_core..join..join_context$LT$rayon..iter..plumbing..bridge_producer_consumer..helper$LT$rayon..slice..IterMutProducer$LT$f64$GT$$C$rayon..iter..for_each..ForEachConsumer$LT$pkboost..model..OptimizedPKBoostShannon..fit..$u7b$$u7b$closure$u7d$$u7d$$GT$$GT$..$u7b$$u7b$closure$u7d$$u7d$$C$rayon..iter..plumbing..bridge_producer_consumer..helper$LT$rayon..slice..IterMutProducer$LT$f64$GT$$C$rayon..iter..for_each..ForEachConsumer$LT$pkboost..model..OptimizedPKBoostShannon..fit..$u7b$$u7b$closure$u7d$$u7d$$GT$$GT$..$u7b$$u7b$closure$u7d$$u7d$$C$$LP$$RP$$C$$LP$$RP$$GT$..$u7b$$u7b$closure$u7d$$u7d$$C$$LP$$LP$$RP$$C$$LP$$RP$$RP$$GT$..$u7b$$u7b$closure$u7d$$u7d$$C$$LP$$LP$$RP$$C$$LP$$RP$$RP$$GT$$GT$17hff0a4dd68b956408E', symObjAddr: 0x163E0, symBinAddr: 0x12578, symSize: 0x7C }
  - { offset: 0x4841C, size: 0x8, addend: 0x0, symName: '__ZN4core3ptr83drop_in_place$LT$alloc..vec..Vec$LT$pkboost..model..OptimizedPKBoostShannon$GT$$GT$17h03120f845d42dea5E', symObjAddr: 0x1645C, symBinAddr: 0x125F4, symSize: 0x64 }
  - { offset: 0x4854C, size: 0x8, addend: 0x0, symName: '__ZN4core3ptr849drop_in_place$LT$rayon_core..job..StackJob$LT$rayon_core..latch..SpinLatch$C$rayon_core..join..join_context..call_b$LT$rayon..iter..collect..consumer..CollectResult$LT$pkboost..optimized_data..CachedHistogram$GT$$C$rayon..iter..plumbing..bridge_producer_consumer..helper$LT$rayon..iter..zip..ZipProducer$LT$rayon..slice..IterProducer$LT$pkboost..optimized_data..CachedHistogram$GT$$C$rayon..slice..IterProducer$LT$pkboost..optimized_data..CachedHistogram$GT$$GT$$C$rayon..iter..map..MapConsumer$LT$rayon..iter..collect..consumer..CollectConsumer$LT$pkboost..optimized_data..CachedHistogram$GT$$C$pkboost..tree..OptimizedTreeShannon..fit_optimized..$u7b$$u7b$closure$u7d$$u7d$$GT$$GT$..$u7b$$u7b$closure$u7d$$u7d$$GT$..$u7b$$u7b$closure$u7d$$u7d$$C$rayon..iter..collect..consumer..CollectResult$LT$pkboost..optimized_data..CachedHistogram$GT$$GT$$GT$17h74b5db100fc2c62aE', symObjAddr: 0x164C0, symBinAddr: 0x12658, symSize: 0x104 }
  - { offset: 0x48CC9, size: 0x8, addend: 0x0, symName: '__ZN4core3ptr84drop_in_place$LT$alloc..vec..Vec$LT$pkboost..optimized_data..CachedHistogram$GT$$GT$17hb0656ae53ff3c8b5E', symObjAddr: 0x165C4, symBinAddr: 0x1275C, symSize: 0xC4 }
  - { offset: 0x4933A, size: 0x8, addend: 0x0, symName: '__ZN4core3ptr892drop_in_place$LT$rayon_core..job..StackJob$LT$rayon_core..latch..LatchRef$LT$rayon_core..latch..LockLatch$GT$$C$rayon_core..registry..Registry..in_worker_cold$LT$rayon_core..join..join_context$LT$rayon..iter..plumbing..bridge_producer_consumer..helper$LT$rayon..slice..IterMutProducer$LT$f64$GT$$C$rayon..iter..for_each..ForEachConsumer$LT$pkboost..model..OptimizedPKBoostShannon..fit..$u7b$$u7b$closure$u7d$$u7d$$GT$$GT$..$u7b$$u7b$closure$u7d$$u7d$$C$rayon..iter..plumbing..bridge_producer_consumer..helper$LT$rayon..slice..IterMutProducer$LT$f64$GT$$C$rayon..iter..for_each..ForEachConsumer$LT$pkboost..model..OptimizedPKBoostShannon..fit..$u7b$$u7b$closure$u7d$$u7d$$GT$$GT$..$u7b$$u7b$closure$u7d$$u7d$$C$$LP$$RP$$C$$LP$$RP$$GT$..$u7b$$u7b$closure$u7d$$u7d$$C$$LP$$LP$$RP$$C$$LP$$RP$$RP$$GT$..$u7b$$u7b$closure$u7d$$u7d$..$u7b$$u7b$closure$u7d$$u7d$$C$$LP$$LP$$RP$$C$$LP$$RP$$RP$$GT$$GT$17h5251fc89712939e1E', symObjAddr: 0x16688, symBinAddr: 0x12820, symSize: 0x7C }
  - { offset: 0x49544, size: 0x8, addend: 0x0, symName: '__ZN4core3ptr91drop_in_place$LT$core..result..Result$LT$alloc..string..String$C$std..env..VarError$GT$$GT$17h772161f39de4a4afE', symObjAddr: 0x16704, symBinAddr: 0x1289C, symSize: 0x24 }
  - { offset: 0x4964A, size: 0x8, addend: 0x0, symName: '__ZN4core3ptr92drop_in_place$LT$alloc..collections..vec_deque..VecDeque$LT$pkboost..tree..SplitTask$GT$$GT$17h07c55096d30a1a5aE', symObjAddr: 0x16728, symBinAddr: 0x128C0, symSize: 0x98 }
  - { offset: 0x4996D, size: 0x8, addend: 0x0, symName: '__ZN4core3ptr92drop_in_place$LT$alloc..vec..Vec$LT$$LP$alloc..vec..Vec$LT$f64$GT$$C$usize$C$f64$RP$$GT$$GT$17he50b5278153346e5E', symObjAddr: 0x167C0, symBinAddr: 0x12958, symSize: 0x78 }
  - { offset: 0x49B82, size: 0x8, addend: 0x0, symName: '__ZN4core3ptr931drop_in_place$LT$rayon_core..job..StackJob$LT$rayon_core..latch..SpinLatch$C$rayon_core..registry..Registry..in_worker_cross$LT$rayon_core..join..join_context$LT$rayon..iter..plumbing..bridge_producer_consumer..helper$LT$rayon..iter..enumerate..EnumerateProducer$LT$rayon..slice..IterMutProducer$LT$f64$GT$$GT$$C$rayon..iter..for_each..ForEachConsumer$LT$pkboost..regression..PKBoostRegressor..predict..$u7b$$u7b$closure$u7d$$u7d$$GT$$GT$..$u7b$$u7b$closure$u7d$$u7d$$C$rayon..iter..plumbing..bridge_producer_consumer..helper$LT$rayon..iter..enumerate..EnumerateProducer$LT$rayon..slice..IterMutProducer$LT$f64$GT$$GT$$C$rayon..iter..for_each..ForEachConsumer$LT$pkboost..regression..PKBoostRegressor..predict..$u7b$$u7b$closure$u7d$$u7d$$GT$$GT$..$u7b$$u7b$closure$u7d$$u7d$$C$$LP$$RP$$C$$LP$$RP$$GT$..$u7b$$u7b$closure$u7d$$u7d$$C$$LP$$LP$$RP$$C$$LP$$RP$$RP$$GT$..$u7b$$u7b$closure$u7d$$u7d$$C$$LP$$LP$$RP$$C$$LP$$RP$$RP$$GT$$GT$17hc4969f8f98c54198E', symObjAddr: 0x16838, symBinAddr: 0x129D0, symSize: 0x7C }
  - { offset: 0x49D8C, size: 0x8, addend: 0x0, symName: '__ZN4core3ptr93drop_in_place$LT$core..cell..UnsafeCell$LT$rayon_core..job..JobResult$LT$$LP$$RP$$GT$$GT$$GT$17h314d64526b390384E', symObjAddr: 0x168B4, symBinAddr: 0x12A4C, symSize: 0x7C }
  - { offset: 0x49F6C, size: 0x8, addend: 0x0, symName: '__ZN4core3ptr93drop_in_place$LT$std..io..default_write_fmt..Adapter$LT$std..sys..stdio..unix..Stderr$GT$$GT$17h34ff875b90516d5fE', symObjAddr: 0x16930, symBinAddr: 0x12AC8, symSize: 0xA8 }
  - { offset: 0x4A31E, size: 0x8, addend: 0x0, symName: '__ZN4core3ptr94drop_in_place$LT$alloc..collections..vec_deque..VecDeque$LT$alloc..vec..Vec$LT$f64$GT$$GT$$GT$17h7947f4d85b23c451E', symObjAddr: 0x169D8, symBinAddr: 0x12B70, symSize: 0x104 }
  - { offset: 0x4A763, size: 0x8, addend: 0x0, symName: '__ZN4core3ptr994drop_in_place$LT$rayon_core..job..StackJob$LT$rayon_core..latch..LatchRef$LT$rayon_core..latch..LockLatch$GT$$C$rayon_core..registry..Registry..in_worker_cold$LT$rayon_core..join..join_context$LT$rayon..iter..plumbing..bridge_producer_consumer..helper$LT$rayon..iter..enumerate..EnumerateProducer$LT$rayon..slice..IterMutProducer$LT$f64$GT$$GT$$C$rayon..iter..for_each..ForEachConsumer$LT$pkboost..regression..PKBoostRegressor..predict..$u7b$$u7b$closure$u7d$$u7d$$GT$$GT$..$u7b$$u7b$closure$u7d$$u7d$$C$rayon..iter..plumbing..bridge_producer_consumer..helper$LT$rayon..iter..enumerate..EnumerateProducer$LT$rayon..slice..IterMutProducer$LT$f64$GT$$GT$$C$rayon..iter..for_each..ForEachConsumer$LT$pkboost..regression..PKBoostRegressor..predict..$u7b$$u7b$closure$u7d$$u7d$$GT$$GT$..$u7b$$u7b$closure$u7d$$u7d$$C$$LP$$RP$$C$$LP$$RP$$GT$..$u7b$$u7b$closure$u7d$$u7d$$C$$LP$$LP$$RP$$C$$LP$$RP$$RP$$GT$..$u7b$$u7b$closure$u7d$$u7d$..$u7b$$u7b$closure$u7d$$u7d$$C$$LP$$LP$$RP$$C$$LP$$RP$$RP$$GT$$GT$17h327e5bfc22cf3162E', symObjAddr: 0x16ADC, symBinAddr: 0x12C74, symSize: 0x7C }
  - { offset: 0x5E4EB, size: 0x8, addend: 0x0, symName: '__ZN4core3ops8function6FnOnce40call_once$u7b$$u7b$vtable.shim$u7d$$u7d$17h173f604951d7cca1E', symObjAddr: 0x13644, symBinAddr: 0xF7DC, symSize: 0x70 }
  - { offset: 0x5E6AF, size: 0x8, addend: 0x0, symName: '__ZN4core3ops8function6FnOnce40call_once$u7b$$u7b$vtable.shim$u7d$$u7d$17h1c3452f7ddd7f8fdE', symObjAddr: 0x136B4, symBinAddr: 0xF84C, symSize: 0x70 }
  - { offset: 0x5E8A0, size: 0x8, addend: 0x0, symName: '__ZN4core3ops8function6FnOnce40call_once$u7b$$u7b$vtable.shim$u7d$$u7d$17h6dc05083767a56f4E', symObjAddr: 0x13724, symBinAddr: 0xF8BC, symSize: 0x28 }
  - { offset: 0x5E8FC, size: 0x8, addend: 0x0, symName: '__ZN4core3ops8function6FnOnce40call_once$u7b$$u7b$vtable.shim$u7d$$u7d$17h774b274484efe5cfE', symObjAddr: 0x1374C, symBinAddr: 0xF8E4, symSize: 0xA0 }
  - { offset: 0x5ECF7, size: 0x8, addend: 0x0, symName: '__ZN4core3ops8function6FnOnce40call_once$u7b$$u7b$vtable.shim$u7d$$u7d$17hb290756fdca33d98E', symObjAddr: 0x137EC, symBinAddr: 0xF984, symSize: 0x68 }
  - { offset: 0x5EE3E, size: 0x8, addend: 0x0, symName: __ZN4core3ops8function6FnOnce9call_once17h92505a9a4c8b5471E, symObjAddr: 0x13854, symBinAddr: 0xF9EC, symSize: 0xFC }
  - { offset: 0x5F200, size: 0x8, addend: 0x0, symName: '__ZN4core3ops8function5impls71_$LT$impl$u20$core..ops..function..FnMut$LT$A$GT$$u20$for$u20$$RF$F$GT$8call_mut17h318063ad4f45992fE', symObjAddr: 0x11FB0, symBinAddr: 0xE148, symSize: 0x510 }
  - { offset: 0x60783, size: 0x8, addend: 0x0, symName: '__ZN4core3ops8function5impls71_$LT$impl$u20$core..ops..function..FnMut$LT$A$GT$$u20$for$u20$$RF$F$GT$8call_mut17h3212c905b7eb74e6E', symObjAddr: 0x124C0, symBinAddr: 0xE658, symSize: 0x100C }
  - { offset: 0x64E90, size: 0x8, addend: 0x0, symName: '__ZN4core3ops8function5impls71_$LT$impl$u20$core..ops..function..FnMut$LT$A$GT$$u20$for$u20$$RF$F$GT$8call_mut17h403fb47f6074dd05E', symObjAddr: 0x134CC, symBinAddr: 0xF664, symSize: 0x178 }
  - { offset: 0x68915, size: 0x8, addend: 0x0, symName: '__ZN42_$LT$$RF$T$u20$as$u20$core..fmt..Debug$GT$3fmt17h0798a537f43a0d59E', symObjAddr: 0x11E0C, symBinAddr: 0xDFA4, symSize: 0x1C }
  - { offset: 0x689A1, size: 0x8, addend: 0x0, symName: __ZN4core3fmt5Write10write_char17h5a4a630fc77553f7E, symObjAddr: 0x11EF0, symBinAddr: 0xE088, symSize: 0xB0 }
  - { offset: 0x68B49, size: 0x8, addend: 0x0, symName: __ZN4core3fmt5Write9write_fmt17h5b75d973fb2d8077E, symObjAddr: 0x11FA0, symBinAddr: 0xE138, symSize: 0x10 }
  - { offset: 0x72335, size: 0x8, addend: 0x0, symName: __ZN4core5slice4sort6select17median_of_medians17h0913f710f0ae9deeE, symObjAddr: 0x16FE4, symBinAddr: 0x1317C, symSize: 0x714 }
  - { offset: 0x739F9, size: 0x8, addend: 0x0, symName: __ZN4core5slice4sort6select17median_of_medians17he92e7dda78190854E, symObjAddr: 0x176F8, symBinAddr: 0x13890, symSize: 0x714 }
  - { offset: 0x7517C, size: 0x8, addend: 0x0, symName: __ZN4core5slice4sort6shared5pivot11median3_rec17h24349d14abfcb7fcE, symObjAddr: 0x17E0C, symBinAddr: 0x13FA4, symSize: 0xF4 }
  - { offset: 0x75429, size: 0x8, addend: 0x0, symName: __ZN4core5slice4sort6shared5pivot11median3_rec17h299d8e59b2f6f568E, symObjAddr: 0x17F00, symBinAddr: 0x14098, symSize: 0xF4 }
  - { offset: 0x7565D, size: 0x8, addend: 0x0, symName: __ZN4core5slice4sort6shared5pivot11median3_rec17h42e37f01be99bd94E, symObjAddr: 0x17FF4, symBinAddr: 0x1418C, symSize: 0xF4 }
  - { offset: 0x7590E, size: 0x8, addend: 0x0, symName: __ZN4core5slice4sort6shared5pivot11median3_rec17h65c311a253e227bcE, symObjAddr: 0x180E8, symBinAddr: 0x14280, symSize: 0xF4 }
  - { offset: 0x75BBB, size: 0x8, addend: 0x0, symName: __ZN4core5slice4sort6shared5pivot11median3_rec17h6ab349bf6e5a21edE, symObjAddr: 0x181DC, symBinAddr: 0x14374, symSize: 0x144 }
  - { offset: 0x75DD9, size: 0x8, addend: 0x0, symName: __ZN4core5slice4sort6shared5pivot11median3_rec17h8c1fa9765f355606E, symObjAddr: 0x18320, symBinAddr: 0x144B8, symSize: 0xF4 }
  - { offset: 0x7608A, size: 0x8, addend: 0x0, symName: __ZN4core5slice4sort6shared5pivot11median3_rec17hf446d2d8d27ba7d9E, symObjAddr: 0x18414, symBinAddr: 0x145AC, symSize: 0xF4 }
  - { offset: 0x7682F, size: 0x8, addend: 0x0, symName: __ZN4core5slice4sort6shared9smallsort12sort4_stable17h101bfa6294f5e7dcE, symObjAddr: 0x18508, symBinAddr: 0x146A0, symSize: 0xE8 }
  - { offset: 0x76E24, size: 0x8, addend: 0x0, symName: __ZN4core5slice4sort6shared9smallsort12sort4_stable17h22d6d8ac176a235cE, symObjAddr: 0x185F0, symBinAddr: 0x14788, symSize: 0xE8 }
  - { offset: 0x77419, size: 0x8, addend: 0x0, symName: __ZN4core5slice4sort6shared9smallsort12sort4_stable17h274f9ae5151aaff7E, symObjAddr: 0x186D8, symBinAddr: 0x14870, symSize: 0xE8 }
  - { offset: 0x77A0E, size: 0x8, addend: 0x0, symName: __ZN4core5slice4sort6shared9smallsort12sort4_stable17h9cc6e36bc20ee42cE, symObjAddr: 0x187C0, symBinAddr: 0x14958, symSize: 0xE8 }
  - { offset: 0x781FD, size: 0x8, addend: 0x0, symName: __ZN4core5slice4sort6shared9smallsort12sort8_stable17h68f74fc81b95a9ffE, symObjAddr: 0x188A8, symBinAddr: 0x14A40, symSize: 0x1F4 }
  - { offset: 0x787D6, size: 0x8, addend: 0x0, symName: __ZN4core5slice4sort6shared9smallsort12sort8_stable17hb62bdd1e1e782a29E, symObjAddr: 0x18A9C, symBinAddr: 0x14C34, symSize: 0x1F4 }
  - { offset: 0x78DAF, size: 0x8, addend: 0x0, symName: __ZN4core5slice4sort6shared9smallsort12sort8_stable17hbaa58b159f8c3ffcE, symObjAddr: 0x18C90, symBinAddr: 0x14E28, symSize: 0x1F4 }
  - { offset: 0x79388, size: 0x8, addend: 0x0, symName: __ZN4core5slice4sort6shared9smallsort12sort8_stable17hc59186d8472ea709E, symObjAddr: 0x18E84, symBinAddr: 0x1501C, symSize: 0x1F4 }
  - { offset: 0x7980E, size: 0x8, addend: 0x0, symName: __ZN4core5slice4sort6shared9smallsort25insertion_sort_shift_left17h4cad223583f1da80E, symObjAddr: 0x19078, symBinAddr: 0x15210, symSize: 0x120 }
  - { offset: 0x79B01, size: 0x8, addend: 0x0, symName: __ZN4core5slice4sort6shared9smallsort25insertion_sort_shift_left17h4d0320b145c1570eE, symObjAddr: 0x19198, symBinAddr: 0x15330, symSize: 0xB8 }
  - { offset: 0x79DBD, size: 0x8, addend: 0x0, symName: __ZN4core5slice4sort6shared9smallsort25insertion_sort_shift_left17h72dc3ed91700959fE, symObjAddr: 0x19250, symBinAddr: 0x153E8, symSize: 0xB8 }
  - { offset: 0x7A079, size: 0x8, addend: 0x0, symName: __ZN4core5slice4sort6shared9smallsort25insertion_sort_shift_left17he4181c7ac29fbfdcE, symObjAddr: 0x19308, symBinAddr: 0x154A0, symSize: 0xB8 }
  - { offset: 0x7B6C7, size: 0x8, addend: 0x0, symName: __ZN4core5slice4sort8unstable9quicksort9partition17h583e003edf0c31d2E, symObjAddr: 0x1D41C, symBinAddr: 0x195B4, symSize: 0x190 }
  - { offset: 0x7BDD5, size: 0x8, addend: 0x0, symName: __ZN4core5slice4sort8unstable9quicksort9partition17he2739509c775a7afE, symObjAddr: 0x1D5AC, symBinAddr: 0x19744, symSize: 0x190 }
  - { offset: 0x7C77C, size: 0x8, addend: 0x0, symName: __ZN4core5slice4sort8unstable9quicksort9quicksort17he85a88accdaac8f7E, symObjAddr: 0x1D73C, symBinAddr: 0x198D4, symSize: 0x1594 }
  - { offset: 0x82314, size: 0x8, addend: 0x0, symName: __ZN4core5slice4sort8unstable7ipnsort17h77fccc2397e6ec65E, symObjAddr: 0x1D170, symBinAddr: 0x19308, symSize: 0x1A0 }
  - { offset: 0x8272A, size: 0x8, addend: 0x0, symName: __ZN4core5slice4sort8unstable8heapsort8heapsort17h5b0b819e46011436E, symObjAddr: 0x1D310, symBinAddr: 0x194A8, symSize: 0x10C }
  - { offset: 0x82C7E, size: 0x8, addend: 0x0, symName: __ZN4core5slice4sort6stable14driftsort_main17h2a35b8f61aaf8210E, symObjAddr: 0x193C0, symBinAddr: 0x15558, symSize: 0x12C }
  - { offset: 0x83278, size: 0x8, addend: 0x0, symName: __ZN4core5slice4sort6stable14driftsort_main17h80cdb2d23237667fE, symObjAddr: 0x194EC, symBinAddr: 0x15684, symSize: 0x12C }
  - { offset: 0x83872, size: 0x8, addend: 0x0, symName: __ZN4core5slice4sort6stable14driftsort_main17h9742770ef5994402E, symObjAddr: 0x19618, symBinAddr: 0x157B0, symSize: 0x12C }
  - { offset: 0x83E6C, size: 0x8, addend: 0x0, symName: __ZN4core5slice4sort6stable14driftsort_main17hda6affd0ffd5141fE, symObjAddr: 0x19744, symBinAddr: 0x158DC, symSize: 0x12C }
  - { offset: 0x84690, size: 0x8, addend: 0x0, symName: __ZN4core5slice4sort6stable5drift4sort17h8243581419473e38E, symObjAddr: 0x19870, symBinAddr: 0x15A08, symSize: 0x5C4 }
  - { offset: 0x857EF, size: 0x8, addend: 0x0, symName: __ZN4core5slice4sort6stable5drift4sort17hbc6fd726b0f8ac80E, symObjAddr: 0x19E34, symBinAddr: 0x15FCC, symSize: 0x5C4 }
  - { offset: 0x8694E, size: 0x8, addend: 0x0, symName: __ZN4core5slice4sort6stable5drift4sort17hfa6a7585cc89dd00E, symObjAddr: 0x1A3F8, symBinAddr: 0x16590, symSize: 0x5C4 }
  - { offset: 0x87AAD, size: 0x8, addend: 0x0, symName: __ZN4core5slice4sort6stable5drift4sort17hfdfdffae1867c701E, symObjAddr: 0x1A9BC, symBinAddr: 0x16B54, symSize: 0x5C4 }
  - { offset: 0x893BC, size: 0x8, addend: 0x0, symName: __ZN4core5slice4sort6stable9quicksort9quicksort17h2b84334519f6a49aE, symObjAddr: 0x1AF80, symBinAddr: 0x17118, symSize: 0x87C }
  - { offset: 0x8ADC7, size: 0x8, addend: 0x0, symName: __ZN4core5slice4sort6stable9quicksort9quicksort17hceeeef39c582a61aE, symObjAddr: 0x1B7FC, symBinAddr: 0x17994, symSize: 0x87C }
  - { offset: 0x8C7D2, size: 0x8, addend: 0x0, symName: __ZN4core5slice4sort6stable9quicksort9quicksort17hf99e25de048aacfaE, symObjAddr: 0x1C078, symBinAddr: 0x18210, symSize: 0x87C }
  - { offset: 0x8E1DD, size: 0x8, addend: 0x0, symName: __ZN4core5slice4sort6stable9quicksort9quicksort17hfdadcae3df8e66faE, symObjAddr: 0x1C8F4, symBinAddr: 0x18A8C, symSize: 0x87C }
  - { offset: 0x911F4, size: 0x8, addend: 0x0, symName: __ZN4core4iter6traits8iterator8Iterator7collect17h95f9cb75e4f2be48E, symObjAddr: 0x16C64, symBinAddr: 0x12DFC, symSize: 0x380 }
  - { offset: 0x9D55D, size: 0x8, addend: 0x0, symName: __ZN4core4hash11BuildHasher8hash_one17hdd67262f2052988eE, symObjAddr: 0x16B58, symBinAddr: 0x12CF0, symSize: 0x10C }
  - { offset: 0x9D597, size: 0x8, addend: 0x0, symName: __ZN4core4hash11BuildHasher8hash_one17hdd67262f2052988eE, symObjAddr: 0x16B58, symBinAddr: 0x12CF0, symSize: 0x10C }
  - { offset: 0x9D5AC, size: 0x8, addend: 0x0, symName: __ZN4core4hash11BuildHasher8hash_one17hdd67262f2052988eE, symObjAddr: 0x16B58, symBinAddr: 0x12CF0, symSize: 0x10C }
  - { offset: 0x9D5CE, size: 0x8, addend: 0x0, symName: __ZN4core4hash11BuildHasher8hash_one17hdd67262f2052988eE, symObjAddr: 0x16B58, symBinAddr: 0x12CF0, symSize: 0x10C }
  - { offset: 0x9D5EC, size: 0x8, addend: 0x0, symName: __ZN4core4hash11BuildHasher8hash_one17hdd67262f2052988eE, symObjAddr: 0x16B58, symBinAddr: 0x12CF0, symSize: 0x10C }
  - { offset: 0x9D60A, size: 0x8, addend: 0x0, symName: __ZN4core4hash11BuildHasher8hash_one17hdd67262f2052988eE, symObjAddr: 0x16B58, symBinAddr: 0x12CF0, symSize: 0x10C }
  - { offset: 0xA22C2, size: 0x8, addend: 0x0, symName: '__ZN5alloc3vec16Vec$LT$T$C$A$GT$6retain28_$u7b$$u7b$closure$u7d$$u7d$17hc0011744c6fef01eE', symObjAddr: 0x21BE8, symBinAddr: 0x1DBDC, symSize: 0x678 }
  - { offset: 0xA527C, size: 0x8, addend: 0x0, symName: '__ZN65_$LT$alloc..vec..Vec$LT$T$C$A$GT$$u20$as$u20$core..fmt..Debug$GT$3fmt17h04a4e022dbb94b2cE', symObjAddr: 0x2972C, symBinAddr: 0x2549C, symSize: 0x70 }
  - { offset: 0xA7B2C, size: 0x8, addend: 0x0, symName: '__ZN5alloc7raw_vec20RawVecInner$LT$A$GT$7reserve21do_reserve_and_handle17h0c6708ffda5b93b5E', symObjAddr: 0x22870, symBinAddr: 0xAAF50, symSize: 0xF8 }
  - { offset: 0xA80D7, size: 0x8, addend: 0x0, symName: '__ZN60_$LT$alloc..string..String$u20$as$u20$core..fmt..Display$GT$3fmt17h40cb6c2d63a0400fE', symObjAddr: 0x296E8, symBinAddr: 0x25458, symSize: 0x10 }
  - { offset: 0xACC4D, size: 0x8, addend: 0x0, symName: __ZN7pkboost17adaptive_parallel15PARALLEL_CONFIG17ha3838ccd598050c6E, symObjAddr: 0xD6D98, symBinAddr: 0xF84A0, symSize: 0x0 }
  - { offset: 0xACC89, size: 0x8, addend: 0x0, symName: '__ZN7pkboost15python_bindings202_$LT$impl$u20$pyo3..impl_..pyclass..PyMethods$LT$pkboost..python_bindings..PKBoostAdaptive$GT$$u20$for$u20$pyo3..impl_..pyclass..PyClassImplCollector$LT$pkboost..python_bindings..PKBoostAdaptive$GT$$GT$10py_methods5ITEMS17hc68e2f8a7064ab93E', symObjAddr: 0xD0F58, symBinAddr: 0xEE2E0, symSize: 0x0 }
  - { offset: 0xACC9B, size: 0x8, addend: 0x0, symName: '__ZN7pkboost15python_bindings202_$LT$impl$u20$pyo3..impl_..pyclass..PyMethods$LT$pkboost..python_bindings..PKBoostAdaptive$GT$$u20$for$u20$pyo3..impl_..pyclass..PyClassImplCollector$LT$pkboost..python_bindings..PKBoostAdaptive$GT$$GT$10py_methods5ITEMS10trampoline17h0ec4be58e642445bE', symObjAddr: 0x40ECC, symBinAddr: 0x3CB48, symSize: 0x58 }
  - { offset: 0xACD37, size: 0x8, addend: 0x0, symName: '__ZN7pkboost15python_bindings202_$LT$impl$u20$pyo3..impl_..pyclass..PyMethods$LT$pkboost..python_bindings..PKBoostAdaptive$GT$$u20$for$u20$pyo3..impl_..pyclass..PyClassImplCollector$LT$pkboost..python_bindings..PKBoostAdaptive$GT$$GT$10py_methods5ITEMS10trampoline17h1d77b74857648404E', symObjAddr: 0x40F24, symBinAddr: 0x3CBA0, symSize: 0x24 }
  - { offset: 0xACD98, size: 0x8, addend: 0x0, symName: '__ZN7pkboost15python_bindings202_$LT$impl$u20$pyo3..impl_..pyclass..PyMethods$LT$pkboost..python_bindings..PKBoostAdaptive$GT$$u20$for$u20$pyo3..impl_..pyclass..PyClassImplCollector$LT$pkboost..python_bindings..PKBoostAdaptive$GT$$GT$10py_methods5ITEMS10trampoline17h26b2f4835c71ebc7E', symObjAddr: 0x40F48, symBinAddr: 0x3CBC4, symSize: 0x58 }
  - { offset: 0xACE34, size: 0x8, addend: 0x0, symName: '__ZN7pkboost15python_bindings202_$LT$impl$u20$pyo3..impl_..pyclass..PyMethods$LT$pkboost..python_bindings..PKBoostAdaptive$GT$$u20$for$u20$pyo3..impl_..pyclass..PyClassImplCollector$LT$pkboost..python_bindings..PKBoostAdaptive$GT$$GT$10py_methods5ITEMS10trampoline17h40b17aa6452d0deaE', symObjAddr: 0x40FA0, symBinAddr: 0x3CC1C, symSize: 0x58 }
  - { offset: 0xACED0, size: 0x8, addend: 0x0, symName: '__ZN7pkboost15python_bindings202_$LT$impl$u20$pyo3..impl_..pyclass..PyMethods$LT$pkboost..python_bindings..PKBoostAdaptive$GT$$u20$for$u20$pyo3..impl_..pyclass..PyClassImplCollector$LT$pkboost..python_bindings..PKBoostAdaptive$GT$$GT$10py_methods5ITEMS10trampoline17ha19d0816b709c434E', symObjAddr: 0x40FF8, symBinAddr: 0x3CC74, symSize: 0x24 }
  - { offset: 0xACF31, size: 0x8, addend: 0x0, symName: '__ZN7pkboost15python_bindings202_$LT$impl$u20$pyo3..impl_..pyclass..PyMethods$LT$pkboost..python_bindings..PKBoostAdaptive$GT$$u20$for$u20$pyo3..impl_..pyclass..PyClassImplCollector$LT$pkboost..python_bindings..PKBoostAdaptive$GT$$GT$10py_methods5ITEMS10trampoline17ha6878e46bb346fc8E', symObjAddr: 0x4101C, symBinAddr: 0x3CC98, symSize: 0x24 }
  - { offset: 0xACF92, size: 0x8, addend: 0x0, symName: '__ZN7pkboost15python_bindings202_$LT$impl$u20$pyo3..impl_..pyclass..PyMethods$LT$pkboost..python_bindings..PKBoostAdaptive$GT$$u20$for$u20$pyo3..impl_..pyclass..PyClassImplCollector$LT$pkboost..python_bindings..PKBoostAdaptive$GT$$GT$10py_methods5ITEMS10trampoline17haaa675b112b671c2E', symObjAddr: 0x41040, symBinAddr: 0x3CCBC, symSize: 0x58 }
  - { offset: 0xAD02E, size: 0x8, addend: 0x0, symName: '__ZN7pkboost15python_bindings202_$LT$impl$u20$pyo3..impl_..pyclass..PyMethods$LT$pkboost..python_bindings..PKBoostAdaptive$GT$$u20$for$u20$pyo3..impl_..pyclass..PyClassImplCollector$LT$pkboost..python_bindings..PKBoostAdaptive$GT$$GT$10py_methods5ITEMS10trampoline17hcc813400c059639cE', symObjAddr: 0x41098, symBinAddr: 0x3CD14, symSize: 0x4C }
  - { offset: 0xAD0CE, size: 0x8, addend: 0x0, symName: '__ZN7pkboost15python_bindings206_$LT$impl$u20$pyo3..impl_..pyclass..PyMethods$LT$pkboost..python_bindings..PKBoostClassifier$GT$$u20$for$u20$pyo3..impl_..pyclass..PyClassImplCollector$LT$pkboost..python_bindings..PKBoostClassifier$GT$$GT$10py_methods5ITEMS17h8fbe2bd6c7dff669E', symObjAddr: 0xD1348, symBinAddr: 0xEE6D0, symSize: 0x0 }
  - { offset: 0xAD0E0, size: 0x8, addend: 0x0, symName: '__ZN7pkboost15python_bindings206_$LT$impl$u20$pyo3..impl_..pyclass..PyMethods$LT$pkboost..python_bindings..PKBoostClassifier$GT$$u20$for$u20$pyo3..impl_..pyclass..PyClassImplCollector$LT$pkboost..python_bindings..PKBoostClassifier$GT$$GT$10py_methods5ITEMS10trampoline17h3fec0bfc1f750ab7E', symObjAddr: 0x410E4, symBinAddr: 0x3CD60, symSize: 0x58 }
  - { offset: 0xAD176, size: 0x8, addend: 0x0, symName: '__ZN7pkboost15python_bindings206_$LT$impl$u20$pyo3..impl_..pyclass..PyMethods$LT$pkboost..python_bindings..PKBoostClassifier$GT$$u20$for$u20$pyo3..impl_..pyclass..PyClassImplCollector$LT$pkboost..python_bindings..PKBoostClassifier$GT$$GT$10py_methods5ITEMS10trampoline17h42be9cfc3e8dcb63E', symObjAddr: 0x4113C, symBinAddr: 0x3CDB8, symSize: 0x24 }
  - { offset: 0xAD1D3, size: 0x8, addend: 0x0, symName: '__ZN7pkboost15python_bindings206_$LT$impl$u20$pyo3..impl_..pyclass..PyMethods$LT$pkboost..python_bindings..PKBoostClassifier$GT$$u20$for$u20$pyo3..impl_..pyclass..PyClassImplCollector$LT$pkboost..python_bindings..PKBoostClassifier$GT$$GT$10py_methods5ITEMS10trampoline17h4894307db3e58d87E', symObjAddr: 0x41160, symBinAddr: 0x3CDDC, symSize: 0x58 }
  - { offset: 0xAD269, size: 0x8, addend: 0x0, symName: '__ZN7pkboost15python_bindings206_$LT$impl$u20$pyo3..impl_..pyclass..PyMethods$LT$pkboost..python_bindings..PKBoostClassifier$GT$$u20$for$u20$pyo3..impl_..pyclass..PyClassImplCollector$LT$pkboost..python_bindings..PKBoostClassifier$GT$$GT$10py_methods5ITEMS10trampoline17h6f56d3914d8abbc0E', symObjAddr: 0x411B8, symBinAddr: 0x3CE34, symSize: 0x24 }
  - { offset: 0xAD2C6, size: 0x8, addend: 0x0, symName: '__ZN7pkboost15python_bindings206_$LT$impl$u20$pyo3..impl_..pyclass..PyMethods$LT$pkboost..python_bindings..PKBoostClassifier$GT$$u20$for$u20$pyo3..impl_..pyclass..PyClassImplCollector$LT$pkboost..python_bindings..PKBoostClassifier$GT$$GT$10py_methods5ITEMS10trampoline17h754b20c95c05ef35E', symObjAddr: 0x411DC, symBinAddr: 0x3CE58, symSize: 0x58 }
  - { offset: 0xAD35C, size: 0x8, addend: 0x0, symName: '__ZN7pkboost15python_bindings206_$LT$impl$u20$pyo3..impl_..pyclass..PyMethods$LT$pkboost..python_bindings..PKBoostClassifier$GT$$u20$for$u20$pyo3..impl_..pyclass..PyClassImplCollector$LT$pkboost..python_bindings..PKBoostClassifier$GT$$GT$10py_methods5ITEMS10trampoline17h77e90f040673fb34E', symObjAddr: 0x41234, symBinAddr: 0x3CEB0, symSize: 0x58 }
  - { offset: 0xAD3F2, size: 0x8, addend: 0x0, symName: '__ZN7pkboost15python_bindings206_$LT$impl$u20$pyo3..impl_..pyclass..PyMethods$LT$pkboost..python_bindings..PKBoostClassifier$GT$$u20$for$u20$pyo3..impl_..pyclass..PyClassImplCollector$LT$pkboost..python_bindings..PKBoostClassifier$GT$$GT$10py_methods5ITEMS10trampoline17h79ed39ead2167a90E', symObjAddr: 0x4128C, symBinAddr: 0x3CF08, symSize: 0x24 }
  - { offset: 0xAD44F, size: 0x8, addend: 0x0, symName: '__ZN7pkboost15python_bindings206_$LT$impl$u20$pyo3..impl_..pyclass..PyMethods$LT$pkboost..python_bindings..PKBoostClassifier$GT$$u20$for$u20$pyo3..impl_..pyclass..PyClassImplCollector$LT$pkboost..python_bindings..PKBoostClassifier$GT$$GT$10py_methods5ITEMS10trampoline17h88f4e6db59cde794E', symObjAddr: 0x412B0, symBinAddr: 0x3CF2C, symSize: 0x58 }
  - { offset: 0xAD4E5, size: 0x8, addend: 0x0, symName: '__ZN7pkboost15python_bindings206_$LT$impl$u20$pyo3..impl_..pyclass..PyMethods$LT$pkboost..python_bindings..PKBoostClassifier$GT$$u20$for$u20$pyo3..impl_..pyclass..PyClassImplCollector$LT$pkboost..python_bindings..PKBoostClassifier$GT$$GT$10py_methods5ITEMS10trampoline17h8b202642a86f4229E', symObjAddr: 0x41308, symBinAddr: 0x3CF84, symSize: 0x4C }
  - { offset: 0xAD565, size: 0x8, addend: 0x0, symName: '__ZN7pkboost15python_bindings206_$LT$impl$u20$pyo3..impl_..pyclass..PyMethods$LT$pkboost..python_bindings..PKBoostClassifier$GT$$u20$for$u20$pyo3..impl_..pyclass..PyClassImplCollector$LT$pkboost..python_bindings..PKBoostClassifier$GT$$GT$10py_methods5ITEMS10trampoline17h98557a414c4bdf1fE', symObjAddr: 0x41354, symBinAddr: 0x3CFD0, symSize: 0x24 }
  - { offset: 0xAD5C2, size: 0x8, addend: 0x0, symName: '__ZN7pkboost15python_bindings206_$LT$impl$u20$pyo3..impl_..pyclass..PyMethods$LT$pkboost..python_bindings..PKBoostClassifier$GT$$u20$for$u20$pyo3..impl_..pyclass..PyClassImplCollector$LT$pkboost..python_bindings..PKBoostClassifier$GT$$GT$10py_methods5ITEMS10trampoline17haee08b89f6583e28E', symObjAddr: 0x41378, symBinAddr: 0x3CFF4, symSize: 0x58 }
  - { offset: 0xAD658, size: 0x8, addend: 0x0, symName: '__ZN7pkboost15python_bindings206_$LT$impl$u20$pyo3..impl_..pyclass..PyMethods$LT$pkboost..python_bindings..PKBoostClassifier$GT$$u20$for$u20$pyo3..impl_..pyclass..PyClassImplCollector$LT$pkboost..python_bindings..PKBoostClassifier$GT$$GT$10py_methods5ITEMS10trampoline17hb0a2355b41e8e6c5E', symObjAddr: 0x413D0, symBinAddr: 0x3D04C, symSize: 0x58 }
  - { offset: 0xAD6EE, size: 0x8, addend: 0x0, symName: '__ZN7pkboost15python_bindings206_$LT$impl$u20$pyo3..impl_..pyclass..PyMethods$LT$pkboost..python_bindings..PKBoostClassifier$GT$$u20$for$u20$pyo3..impl_..pyclass..PyClassImplCollector$LT$pkboost..python_bindings..PKBoostClassifier$GT$$GT$10py_methods5ITEMS10trampoline17hc7e6905a1bb60a8fE', symObjAddr: 0x41428, symBinAddr: 0x3D0A4, symSize: 0x24 }
  - { offset: 0xAD74B, size: 0x8, addend: 0x0, symName: '__ZN7pkboost15python_bindings206_$LT$impl$u20$pyo3..impl_..pyclass..PyMethods$LT$pkboost..python_bindings..PKBoostClassifier$GT$$u20$for$u20$pyo3..impl_..pyclass..PyClassImplCollector$LT$pkboost..python_bindings..PKBoostClassifier$GT$$GT$10py_methods5ITEMS10trampoline17hed6d9ed1a512e1ffE', symObjAddr: 0x4144C, symBinAddr: 0x3D0C8, symSize: 0x58 }
  - { offset: 0xAD7E1, size: 0x8, addend: 0x0, symName: '__ZN7pkboost15python_bindings206_$LT$impl$u20$pyo3..impl_..pyclass..PyMethods$LT$pkboost..python_bindings..PKBoostClassifier$GT$$u20$for$u20$pyo3..impl_..pyclass..PyClassImplCollector$LT$pkboost..python_bindings..PKBoostClassifier$GT$$GT$10py_methods5ITEMS10trampoline17hff999eae9af1a680E', symObjAddr: 0x414A4, symBinAddr: 0x3D120, symSize: 0x24 }
  - { offset: 0xAD85A, size: 0x8, addend: 0x0, symName: '__ZN7pkboost15python_bindings208_$LT$impl$u20$pyo3..impl_..pyclass..PyMethods$LT$pkboost..python_bindings..PKBoostRegressorPy$GT$$u20$for$u20$pyo3..impl_..pyclass..PyClassImplCollector$LT$pkboost..python_bindings..PKBoostRegressorPy$GT$$GT$10py_methods5ITEMS17he8ac1ca18b220deeE', symObjAddr: 0xD1478, symBinAddr: 0xEE800, symSize: 0x0 }
  - { offset: 0xAD86C, size: 0x8, addend: 0x0, symName: '__ZN7pkboost15python_bindings208_$LT$impl$u20$pyo3..impl_..pyclass..PyMethods$LT$pkboost..python_bindings..PKBoostRegressorPy$GT$$u20$for$u20$pyo3..impl_..pyclass..PyClassImplCollector$LT$pkboost..python_bindings..PKBoostRegressorPy$GT$$GT$10py_methods5ITEMS10trampoline17h63aa98058e09fafaE', symObjAddr: 0x414C8, symBinAddr: 0x3D144, symSize: 0x58 }
  - { offset: 0xAD908, size: 0x8, addend: 0x0, symName: '__ZN7pkboost15python_bindings208_$LT$impl$u20$pyo3..impl_..pyclass..PyMethods$LT$pkboost..python_bindings..PKBoostRegressorPy$GT$$u20$for$u20$pyo3..impl_..pyclass..PyClassImplCollector$LT$pkboost..python_bindings..PKBoostRegressorPy$GT$$GT$10py_methods5ITEMS10trampoline17h93b2b3374418d005E', symObjAddr: 0x41520, symBinAddr: 0x3D19C, symSize: 0x4C }
  - { offset: 0xAD98D, size: 0x8, addend: 0x0, symName: '__ZN7pkboost15python_bindings208_$LT$impl$u20$pyo3..impl_..pyclass..PyMethods$LT$pkboost..python_bindings..PKBoostRegressorPy$GT$$u20$for$u20$pyo3..impl_..pyclass..PyClassImplCollector$LT$pkboost..python_bindings..PKBoostRegressorPy$GT$$GT$10py_methods5ITEMS10trampoline17ha7b9972881289f61E', symObjAddr: 0x4156C, symBinAddr: 0x3D1E8, symSize: 0x24 }
  - { offset: 0xAD9EE, size: 0x8, addend: 0x0, symName: '__ZN7pkboost15python_bindings208_$LT$impl$u20$pyo3..impl_..pyclass..PyMethods$LT$pkboost..python_bindings..PKBoostRegressorPy$GT$$u20$for$u20$pyo3..impl_..pyclass..PyClassImplCollector$LT$pkboost..python_bindings..PKBoostRegressorPy$GT$$GT$10py_methods5ITEMS10trampoline17hda3baf06e1a3d71aE', symObjAddr: 0x41590, symBinAddr: 0x3D20C, symSize: 0x58 }
  - { offset: 0xADAA6, size: 0x8, addend: 0x0, symName: '__ZN7pkboost15python_bindings210_$LT$impl$u20$pyo3..impl_..pyclass..PyMethods$LT$pkboost..python_bindings..PKBoostMultiClassPy$GT$$u20$for$u20$pyo3..impl_..pyclass..PyClassImplCollector$LT$pkboost..python_bindings..PKBoostMultiClassPy$GT$$GT$10py_methods5ITEMS17h8e6f1237d93c9163E', symObjAddr: 0xD15A8, symBinAddr: 0xEE930, symSize: 0x0 }
  - { offset: 0xADAB8, size: 0x8, addend: 0x0, symName: '__ZN7pkboost15python_bindings210_$LT$impl$u20$pyo3..impl_..pyclass..PyMethods$LT$pkboost..python_bindings..PKBoostMultiClassPy$GT$$u20$for$u20$pyo3..impl_..pyclass..PyClassImplCollector$LT$pkboost..python_bindings..PKBoostMultiClassPy$GT$$GT$10py_methods5ITEMS10trampoline17h1d163c117db827b0E', symObjAddr: 0x415E8, symBinAddr: 0x3D264, symSize: 0x58 }
  - { offset: 0xADB54, size: 0x8, addend: 0x0, symName: '__ZN7pkboost15python_bindings210_$LT$impl$u20$pyo3..impl_..pyclass..PyMethods$LT$pkboost..python_bindings..PKBoostMultiClassPy$GT$$u20$for$u20$pyo3..impl_..pyclass..PyClassImplCollector$LT$pkboost..python_bindings..PKBoostMultiClassPy$GT$$GT$10py_methods5ITEMS10trampoline17h2f2af8da4f930884E', symObjAddr: 0x41640, symBinAddr: 0x3D2BC, symSize: 0x58 }
  - { offset: 0xADBF0, size: 0x8, addend: 0x0, symName: '__ZN7pkboost15python_bindings210_$LT$impl$u20$pyo3..impl_..pyclass..PyMethods$LT$pkboost..python_bindings..PKBoostMultiClassPy$GT$$u20$for$u20$pyo3..impl_..pyclass..PyClassImplCollector$LT$pkboost..python_bindings..PKBoostMultiClassPy$GT$$GT$10py_methods5ITEMS10trampoline17h67ba74a1512e4abeE', symObjAddr: 0x41698, symBinAddr: 0x3D314, symSize: 0x4C }
  - { offset: 0xADC75, size: 0x8, addend: 0x0, symName: '__ZN7pkboost15python_bindings210_$LT$impl$u20$pyo3..impl_..pyclass..PyMethods$LT$pkboost..python_bindings..PKBoostMultiClassPy$GT$$u20$for$u20$pyo3..impl_..pyclass..PyClassImplCollector$LT$pkboost..python_bindings..PKBoostMultiClassPy$GT$$GT$10py_methods5ITEMS10trampoline17ha85d9bb955835d6aE', symObjAddr: 0x416E4, symBinAddr: 0x3D360, symSize: 0x58 }
  - { offset: 0xADD28, size: 0x8, addend: 0x0, symName: __MergedGlobals, symObjAddr: 0xD7870, symBinAddr: 0xF8F78, symSize: 0x0 }
  - { offset: 0xADD75, size: 0x8, addend: 0x0, symName: _PyInit_pkboost, symObjAddr: 0x0, symBinAddr: 0x868, symSize: 0x250 }
  - { offset: 0xAE796, size: 0x8, addend: 0x0, symName: __MergedGlobals, symObjAddr: 0xD7870, symBinAddr: 0xF8F78, symSize: 0x0 }
  - { offset: 0xAEA39, size: 0x8, addend: 0x0, symName: '__ZN97_$LT$pkboost..python_bindings..PKBoostClassifier$u20$as$u20$pyo3..impl_..pyclass..PyClassImpl$GT$10items_iter15INTRINSIC_ITEMS17h416ca389094989ffE', symObjAddr: 0xC10E8, symBinAddr: 0xBA2B0, symSize: 0x0 }
  - { offset: 0xAEA5A, size: 0x8, addend: 0x0, symName: __MergedGlobals, symObjAddr: 0xD7870, symBinAddr: 0xF8F78, symSize: 0x0 }
  - { offset: 0xAEEB0, size: 0x8, addend: 0x0, symName: '__ZN98_$LT$pkboost..python_bindings..PKBoostRegressorPy$u20$as$u20$pyo3..impl_..pyclass..PyClassImpl$GT$10items_iter15INTRINSIC_ITEMS17hb67045e0df76b21cE', symObjAddr: 0xC1108, symBinAddr: 0xBA2D0, symSize: 0x0 }
  - { offset: 0xAEED2, size: 0x8, addend: 0x0, symName: __MergedGlobals, symObjAddr: 0xD7870, symBinAddr: 0xF8F78, symSize: 0x0 }
  - { offset: 0xAF05B, size: 0x8, addend: 0x0, symName: '__ZN99_$LT$pkboost..python_bindings..PKBoostMultiClassPy$u20$as$u20$pyo3..impl_..pyclass..PyClassImpl$GT$10items_iter15INTRINSIC_ITEMS17h2b395084b3764732E', symObjAddr: 0xC1128, symBinAddr: 0xBA2F0, symSize: 0x0 }
  - { offset: 0xAF07D, size: 0x8, addend: 0x0, symName: __MergedGlobals, symObjAddr: 0xD7870, symBinAddr: 0xF8F78, symSize: 0x0 }
  - { offset: 0xAF6D9, size: 0x8, addend: 0x0, symName: '__ZN7pkboost15python_bindings17PKBoostClassifier3fit28_$u7b$$u7b$closure$u7d$$u7d$17h2a0212b2adcf0426E', symObjAddr: 0x3C240, symBinAddr: 0x37EBC, symSize: 0x110 }
  - { offset: 0xB00A8, size: 0x8, addend: 0x0, symName: __ZN7pkboost15python_bindings18to_readonly_array117h9aaffc56cbde0b90E, symObjAddr: 0x3E274, symBinAddr: 0x39EF0, symSize: 0x438 }
  - { offset: 0xB0A20, size: 0x8, addend: 0x0, symName: __ZN7pkboost15python_bindings18to_readonly_array217hd77b545af219bcb0E, symObjAddr: 0x3E6AC, symBinAddr: 0x3A328, symSize: 0x460 }
  - { offset: 0xB15C9, size: 0x8, addend: 0x0, symName: '__ZN7pkboost15python_bindings60_$LT$impl$u20$pkboost..python_bindings..pkboost..MakeDef$GT$8make_def15__pyo3_pymodule17he20446ea167eb2a5E', symObjAddr: 0x4173C, symBinAddr: 0x3D3B8, symSize: 0x358 }
  - { offset: 0xB2147, size: 0x8, addend: 0x0, symName: '__ZN7pkboost4tree10INDEX_POOL29_$u7b$$u7b$constant$u7d$$u7d$28_$u7b$$u7b$closure$u7d$$u7d$3VAL17h8f8182fb8c637643E', symObjAddr: 0xD7B58, symBinAddr: 0xF9268, symSize: 0x0 }
  - { offset: 0xB248D, size: 0x8, addend: 0x0, symName: '__ZN183_$LT$pkboost..tree.._..$LT$impl$u20$serde_core..de..Deserialize$u20$for$u20$pkboost..tree..OptimizedTreeShannon$GT$..deserialize..__FieldVisitor$u20$as$u20$serde_core..de..Visitor$GT$9visit_str17h905164e26072e3abE', symObjAddr: 0x10CDC, symBinAddr: 0xD080, symSize: 0x2A0 }
  - { offset: 0xB392A, size: 0x8, addend: 0x0, symName: '__ZN7pkboost4tree41find_best_split_across_features_optimized28_$u7b$$u7b$closure$u7d$$u7d$17hf4111fee56842a84E', symObjAddr: 0x45A80, symBinAddr: 0x416FC, symSize: 0x1D8 }
  - { offset: 0xB43AA, size: 0x8, addend: 0x0, symName: __ZN7pkboost4tree21build_hists_optimized17h4e2c02a668990885E, symObjAddr: 0x44E18, symBinAddr: 0x40A94, symSize: 0x3F8 }
  - { offset: 0xB565B, size: 0x8, addend: 0x0, symName: __ZN7pkboost4tree32find_best_split_cached_optimized17hed02bf662f2e1305E, symObjAddr: 0x45210, symBinAddr: 0x40E8C, symSize: 0x870 }
  - { offset: 0xB65C7, size: 0x8, addend: 0x0, symName: __ZN7pkboost7metrics14ENTROPY_LOOKUP17ha122067c4f81ea40E, symObjAddr: 0xD6DD8, symBinAddr: 0xF84E0, symSize: 0x0 }
  - { offset: 0xB6812, size: 0x8, addend: 0x0, symName: __ZN7pkboost7metrics16calculate_pr_auc17h3d939d520d9b739cE, symObjAddr: 0x4A950, symBinAddr: 0x465CC, symSize: 0x1C4 }
  - { offset: 0xB7034, size: 0x8, addend: 0x0, symName: '__ZN73_$LT$pkboost..living_booster..SystemState$u20$as$u20$core..fmt..Debug$GT$3fmt17h33bb79724d603f4fE', symObjAddr: 0x29B68, symBinAddr: 0x257E4, symSize: 0x88 }
  - { offset: 0xB708E, size: 0x8, addend: 0x0, symName: __ZN7pkboost14living_booster13vec_to_array217hbe24b7693f5f53d0E, symObjAddr: 0x2CE60, symBinAddr: 0x28ADC, symSize: 0x1A0 }
  - { offset: 0xB9844, size: 0x8, addend: 0x0, symName: '__ZN188_$LT$pkboost..model.._..$LT$impl$u20$serde_core..de..Deserialize$u20$for$u20$pkboost..model..OptimizedPKBoostShannon$GT$..deserialize..__FieldVisitor$u20$as$u20$serde_core..de..Visitor$GT$9visit_str17hab336f613847febbE', symObjAddr: 0x10F7C, symBinAddr: 0xD320, symSize: 0x5AC }
  - { offset: 0xBE9C1, size: 0x8, addend: 0x0, symName: '__ZN103_$LT$pyo3..instance..Bound$LT$pyo3..types..any..PyAny$GT$$u20$as$u20$pyo3..types..any..PyAnyMethods$GT$11call_method17h144808025d670717E', symObjAddr: 0x250, symBinAddr: 0xAB8, symSize: 0x320 }
  - { offset: 0xBF49F, size: 0x8, addend: 0x0, symName: '__ZN107_$LT$pyo3..instance..Bound$LT$pyo3..types..dict..PyDict$GT$$u20$as$u20$pyo3..types..dict..PyDictMethods$GT$8set_item17h1c001166caa04809E', symObjAddr: 0x5AC, symBinAddr: 0xDD8, symSize: 0x1F4 }
  - { offset: 0xC01CC, size: 0x8, addend: 0x0, symName: __ZN4pyo35impl_7pyclass10tp_dealloc17h25df58e0abd7e08eE, symObjAddr: 0x20FD8, symBinAddr: 0x1D170, symSize: 0x24 }
  - { offset: 0xC0226, size: 0x8, addend: 0x0, symName: __ZN4pyo35impl_7pyclass10tp_dealloc17h27f152efa36fb9f4E, symObjAddr: 0x20FFC, symBinAddr: 0x1D194, symSize: 0xF4 }
  - { offset: 0xC08B2, size: 0x8, addend: 0x0, symName: __ZN4pyo35impl_7pyclass10tp_dealloc17h30546d8e705d895eE, symObjAddr: 0x210F0, symBinAddr: 0x1D288, symSize: 0x24 }
  - { offset: 0xC090C, size: 0x8, addend: 0x0, symName: __ZN4pyo35impl_7pyclass10tp_dealloc17hb28e552f8d1f8727E, symObjAddr: 0x21114, symBinAddr: 0x1D2AC, symSize: 0x24 }
  - { offset: 0xC0966, size: 0x8, addend: 0x0, symName: __ZN4pyo35impl_7pyclass10tp_dealloc17hd2855c12024e8e97E, symObjAddr: 0x21138, symBinAddr: 0x1D2D0, symSize: 0x24 }
  - { offset: 0xC0A9D, size: 0x8, addend: 0x0, symName: __ZN4pyo35impl_7pyclass18tp_dealloc_with_gc17h73ffba2ac0f63134E, symObjAddr: 0x21300, symBinAddr: 0x1D2F4, symSize: 0x34 }
  - { offset: 0xC0AF7, size: 0x8, addend: 0x0, symName: __ZN4pyo35impl_7pyclass18tp_dealloc_with_gc17h849170f1db1d68a1E, symObjAddr: 0x21334, symBinAddr: 0x1D328, symSize: 0x34 }
  - { offset: 0xC0B51, size: 0x8, addend: 0x0, symName: __ZN4pyo35impl_7pyclass18tp_dealloc_with_gc17h8abff6289e845931E, symObjAddr: 0x21368, symBinAddr: 0x1D35C, symSize: 0x34 }
  - { offset: 0xC0BAB, size: 0x8, addend: 0x0, symName: __ZN4pyo35impl_7pyclass18tp_dealloc_with_gc17habbf70299a43784bE, symObjAddr: 0x2139C, symBinAddr: 0x1D390, symSize: 0xF8 }
  - { offset: 0xC1240, size: 0x8, addend: 0x0, symName: __ZN4pyo35impl_7pyclass18tp_dealloc_with_gc17hdbb26cc46b4b9723E, symObjAddr: 0x21494, symBinAddr: 0x1D488, symSize: 0x34 }
  - { offset: 0xC19C2, size: 0x8, addend: 0x0, symName: __ZN4pyo35impl_10trampoline10trampoline17h22eb5ac3cb728ff4E, symObjAddr: 0x1F308, symBinAddr: 0x1B4A0, symSize: 0x138 }
  - { offset: 0xC2002, size: 0x8, addend: 0x0, symName: __ZN4pyo35impl_10trampoline10trampoline17h6d68e891b113b11aE, symObjAddr: 0x1F440, symBinAddr: 0x1B5D8, symSize: 0x154 }
  - { offset: 0xC26A5, size: 0x8, addend: 0x0, symName: __ZN4pyo35impl_10trampoline10trampoline17h89811de3d5ed0a0bE, symObjAddr: 0x1F594, symBinAddr: 0x1B72C, symSize: 0x14C }
  - { offset: 0xC2D94, size: 0x8, addend: 0x0, symName: __ZN4pyo35impl_10trampoline21trampoline_unraisable17h74c4845f72b06f6cE, symObjAddr: 0x1F6E0, symBinAddr: 0x1B878, symSize: 0xF4 }
  - { offset: 0xC40BF, size: 0x8, addend: 0x0, symName: __ZN4pyo35impl_16extract_argument19extract_pyclass_ref17h7ee5ddc8fbab007bE, symObjAddr: 0x206B4, symBinAddr: 0x1C84C, symSize: 0x1D8 }
  - { offset: 0xC49D1, size: 0x8, addend: 0x0, symName: __ZN4pyo35impl_16extract_argument19extract_pyclass_ref17h92baff310560b6a6E, symObjAddr: 0x2088C, symBinAddr: 0x1CA24, symSize: 0x1D8 }
  - { offset: 0xC52E9, size: 0x8, addend: 0x0, symName: __ZN4pyo35impl_16extract_argument19extract_pyclass_ref17hc57ba1225bd40511E, symObjAddr: 0x20A64, symBinAddr: 0x1CBFC, symSize: 0x1D8 }
  - { offset: 0xC5C01, size: 0x8, addend: 0x0, symName: __ZN4pyo35impl_16extract_argument19extract_pyclass_ref17hd6c44205920a149dE, symObjAddr: 0x20C3C, symBinAddr: 0x1CDD4, symSize: 0x1D8 }
  - { offset: 0xC6519, size: 0x8, addend: 0x0, symName: __ZN4pyo35impl_16extract_argument23extract_pyclass_ref_mut17hdefc739af5178c80E, symObjAddr: 0x20E14, symBinAddr: 0x1CFAC, symSize: 0x1C4 }
  - { offset: 0xC80E5, size: 0x8, addend: 0x0, symName: __ZN4pyo37pyclass18create_type_object18create_type_object17h344780a2f82e63c7E, symObjAddr: 0x21630, symBinAddr: 0x1D624, symSize: 0x64 }
  - { offset: 0xC815C, size: 0x8, addend: 0x0, symName: __ZN4pyo37pyclass18create_type_object18create_type_object17h5e10c95a4b8ddd04E, symObjAddr: 0x21694, symBinAddr: 0x1D688, symSize: 0x64 }
  - { offset: 0xC81D4, size: 0x8, addend: 0x0, symName: __ZN4pyo37pyclass18create_type_object18create_type_object17h78e9c3f9b91cc15aE, symObjAddr: 0x216F8, symBinAddr: 0x1D6EC, symSize: 0x64 }
  - { offset: 0xC824C, size: 0x8, addend: 0x0, symName: __ZN4pyo37pyclass18create_type_object18create_type_object17h7fed1fa4aea51435E, symObjAddr: 0x2175C, symBinAddr: 0x1D750, symSize: 0x64 }
  - { offset: 0xC82C4, size: 0x8, addend: 0x0, symName: __ZN4pyo37pyclass18create_type_object18create_type_object17hffb17e1a7f988798E, symObjAddr: 0x217C0, symBinAddr: 0x1D7B4, symSize: 0x64 }
  - { offset: 0xC8A24, size: 0x8, addend: 0x0, symName: __ZN4pyo310conversion15IntoPyObjectExt17into_bound_py_any17h34c1ff637b8d4e23E, symObjAddr: 0x1ECD0, symBinAddr: 0x1AE68, symSize: 0x238 }
  - { offset: 0xC9119, size: 0x8, addend: 0x0, symName: '__ZN113_$LT$pyo3..pycell..impl_..PyClassObject$LT$T$GT$$u20$as$u20$pyo3..pycell..impl_..PyClassObjectLayout$LT$T$GT$$GT$10tp_dealloc17h03f0ca580f35b525E', symObjAddr: 0x10620, symBinAddr: 0xCBA4, symSize: 0x3C }
  - { offset: 0xC9158, size: 0x8, addend: 0x0, symName: '__ZN113_$LT$pyo3..pycell..impl_..PyClassObject$LT$T$GT$$u20$as$u20$pyo3..pycell..impl_..PyClassObjectLayout$LT$T$GT$$GT$10tp_dealloc17h03f0ca580f35b525E', symObjAddr: 0x10620, symBinAddr: 0xCBA4, symSize: 0x3C }
  - { offset: 0xC917A, size: 0x8, addend: 0x0, symName: '__ZN113_$LT$pyo3..pycell..impl_..PyClassObject$LT$T$GT$$u20$as$u20$pyo3..pycell..impl_..PyClassObjectLayout$LT$T$GT$$GT$10tp_dealloc17h03f0ca580f35b525E', symObjAddr: 0x10620, symBinAddr: 0xCBA4, symSize: 0x3C }
  - { offset: 0xC9198, size: 0x8, addend: 0x0, symName: '__ZN113_$LT$pyo3..pycell..impl_..PyClassObject$LT$T$GT$$u20$as$u20$pyo3..pycell..impl_..PyClassObjectLayout$LT$T$GT$$GT$10tp_dealloc17h03f0ca580f35b525E', symObjAddr: 0x10620, symBinAddr: 0xCBA4, symSize: 0x3C }
  - { offset: 0xC91AD, size: 0x8, addend: 0x0, symName: '__ZN113_$LT$pyo3..pycell..impl_..PyClassObject$LT$T$GT$$u20$as$u20$pyo3..pycell..impl_..PyClassObjectLayout$LT$T$GT$$GT$10tp_dealloc17h03f0ca580f35b525E', symObjAddr: 0x10620, symBinAddr: 0xCBA4, symSize: 0x3C }
  - { offset: 0xC91CB, size: 0x8, addend: 0x0, symName: '__ZN113_$LT$pyo3..pycell..impl_..PyClassObject$LT$T$GT$$u20$as$u20$pyo3..pycell..impl_..PyClassObjectLayout$LT$T$GT$$GT$10tp_dealloc17h03f0ca580f35b525E', symObjAddr: 0x10620, symBinAddr: 0xCBA4, symSize: 0x3C }
  - { offset: 0xC91F4, size: 0x8, addend: 0x0, symName: '__ZN113_$LT$pyo3..pycell..impl_..PyClassObject$LT$T$GT$$u20$as$u20$pyo3..pycell..impl_..PyClassObjectLayout$LT$T$GT$$GT$10tp_dealloc17h2efbd6e8ee3185d2E', symObjAddr: 0x1065C, symBinAddr: 0xCBE0, symSize: 0xE8 }
  - { offset: 0xC97DF, size: 0x8, addend: 0x0, symName: '__ZN113_$LT$pyo3..pycell..impl_..PyClassObject$LT$T$GT$$u20$as$u20$pyo3..pycell..impl_..PyClassObjectLayout$LT$T$GT$$GT$10tp_dealloc17h627d4933529cce1dE', symObjAddr: 0x10744, symBinAddr: 0xCCC8, symSize: 0x70 }
  - { offset: 0xC9A07, size: 0x8, addend: 0x0, symName: '__ZN113_$LT$pyo3..pycell..impl_..PyClassObject$LT$T$GT$$u20$as$u20$pyo3..pycell..impl_..PyClassObjectLayout$LT$T$GT$$GT$10tp_dealloc17hdaf79e4e32651da7E', symObjAddr: 0x107B4, symBinAddr: 0xCD38, symSize: 0x38 }
  - { offset: 0xC9A46, size: 0x8, addend: 0x0, symName: '__ZN113_$LT$pyo3..pycell..impl_..PyClassObject$LT$T$GT$$u20$as$u20$pyo3..pycell..impl_..PyClassObjectLayout$LT$T$GT$$GT$10tp_dealloc17hdaf79e4e32651da7E', symObjAddr: 0x107B4, symBinAddr: 0xCD38, symSize: 0x38 }
  - { offset: 0xC9A68, size: 0x8, addend: 0x0, symName: '__ZN113_$LT$pyo3..pycell..impl_..PyClassObject$LT$T$GT$$u20$as$u20$pyo3..pycell..impl_..PyClassObjectLayout$LT$T$GT$$GT$10tp_dealloc17hdaf79e4e32651da7E', symObjAddr: 0x107B4, symBinAddr: 0xCD38, symSize: 0x38 }
  - { offset: 0xC9A86, size: 0x8, addend: 0x0, symName: '__ZN113_$LT$pyo3..pycell..impl_..PyClassObject$LT$T$GT$$u20$as$u20$pyo3..pycell..impl_..PyClassObjectLayout$LT$T$GT$$GT$10tp_dealloc17hdaf79e4e32651da7E', symObjAddr: 0x107B4, symBinAddr: 0xCD38, symSize: 0x38 }
  - { offset: 0xC9A9B, size: 0x8, addend: 0x0, symName: '__ZN113_$LT$pyo3..pycell..impl_..PyClassObject$LT$T$GT$$u20$as$u20$pyo3..pycell..impl_..PyClassObjectLayout$LT$T$GT$$GT$10tp_dealloc17hdaf79e4e32651da7E', symObjAddr: 0x107B4, symBinAddr: 0xCD38, symSize: 0x38 }
  - { offset: 0xC9AB9, size: 0x8, addend: 0x0, symName: '__ZN113_$LT$pyo3..pycell..impl_..PyClassObject$LT$T$GT$$u20$as$u20$pyo3..pycell..impl_..PyClassObjectLayout$LT$T$GT$$GT$10tp_dealloc17hdaf79e4e32651da7E', symObjAddr: 0x107B4, symBinAddr: 0xCD38, symSize: 0x38 }
  - { offset: 0xC9B2F, size: 0x8, addend: 0x0, symName: '__ZN117_$LT$pyo3..pycell..impl_..PyClassObjectBase$LT$U$GT$$u20$as$u20$pyo3..pycell..impl_..PyClassObjectLayout$LT$T$GT$$GT$10tp_dealloc17hf273b5bffe102e42E', symObjAddr: 0x107EC, symBinAddr: 0xCD70, symSize: 0x114 }
  - { offset: 0xCC21F, size: 0x8, addend: 0x0, symName: '__ZN62_$LT$numpy..error..BorrowError$u20$as$u20$core..fmt..Debug$GT$3fmt17h246c9a129f75deb9E', symObjAddr: 0x296F8, symBinAddr: 0x25468, symSize: 0x34 }
  - { offset: 0xCC2E9, size: 0x8, addend: 0x0, symName: '__ZN112_$LT$numpy..slice_container..PySliceContainer$u20$as$u20$core..convert..From$LT$alloc..vec..Vec$LT$T$GT$$GT$$GT$4from8drop_vec17h0f62ff6358973082E', symObjAddr: 0x10600, symBinAddr: 0xCB84, symSize: 0x10 }
  - { offset: 0xCC32C, size: 0x8, addend: 0x0, symName: '__ZN112_$LT$numpy..slice_container..PySliceContainer$u20$as$u20$core..convert..From$LT$alloc..vec..Vec$LT$T$GT$$GT$$GT$4from8drop_vec17h0f62ff6358973082E', symObjAddr: 0x10600, symBinAddr: 0xCB84, symSize: 0x10 }
  - { offset: 0xCC340, size: 0x8, addend: 0x0, symName: '__ZN112_$LT$numpy..slice_container..PySliceContainer$u20$as$u20$core..convert..From$LT$alloc..vec..Vec$LT$T$GT$$GT$$GT$4from8drop_vec17h0f62ff6358973082E', symObjAddr: 0x10600, symBinAddr: 0xCB84, symSize: 0x10 }
  - { offset: 0xCC355, size: 0x8, addend: 0x0, symName: '__ZN112_$LT$numpy..slice_container..PySliceContainer$u20$as$u20$core..convert..From$LT$alloc..vec..Vec$LT$T$GT$$GT$$GT$4from8drop_vec17h0f62ff6358973082E', symObjAddr: 0x10600, symBinAddr: 0xCB84, symSize: 0x10 }
  - { offset: 0xCC36A, size: 0x8, addend: 0x0, symName: '__ZN112_$LT$numpy..slice_container..PySliceContainer$u20$as$u20$core..convert..From$LT$alloc..vec..Vec$LT$T$GT$$GT$$GT$4from8drop_vec17h0f62ff6358973082E', symObjAddr: 0x10600, symBinAddr: 0xCB84, symSize: 0x10 }
  - { offset: 0xCC384, size: 0x8, addend: 0x0, symName: '__ZN112_$LT$numpy..slice_container..PySliceContainer$u20$as$u20$core..convert..From$LT$alloc..vec..Vec$LT$T$GT$$GT$$GT$4from8drop_vec17h0f62ff6358973082E', symObjAddr: 0x10600, symBinAddr: 0xCB84, symSize: 0x10 }
  - { offset: 0xCC3AB, size: 0x8, addend: 0x0, symName: '__ZN112_$LT$numpy..slice_container..PySliceContainer$u20$as$u20$core..convert..From$LT$alloc..vec..Vec$LT$T$GT$$GT$$GT$4from8drop_vec17h0f62ff6358973082E', symObjAddr: 0x10600, symBinAddr: 0xCB84, symSize: 0x10 }
  - { offset: 0xCC422, size: 0x8, addend: 0x0, symName: '__ZN112_$LT$numpy..slice_container..PySliceContainer$u20$as$u20$core..convert..From$LT$alloc..vec..Vec$LT$T$GT$$GT$$GT$4from8drop_vec17h20c812138d471425E', symObjAddr: 0x10610, symBinAddr: 0xCB94, symSize: 0x10 }
  - { offset: 0xCC465, size: 0x8, addend: 0x0, symName: '__ZN112_$LT$numpy..slice_container..PySliceContainer$u20$as$u20$core..convert..From$LT$alloc..vec..Vec$LT$T$GT$$GT$$GT$4from8drop_vec17h20c812138d471425E', symObjAddr: 0x10610, symBinAddr: 0xCB94, symSize: 0x10 }
  - { offset: 0xCC479, size: 0x8, addend: 0x0, symName: '__ZN112_$LT$numpy..slice_container..PySliceContainer$u20$as$u20$core..convert..From$LT$alloc..vec..Vec$LT$T$GT$$GT$$GT$4from8drop_vec17h20c812138d471425E', symObjAddr: 0x10610, symBinAddr: 0xCB94, symSize: 0x10 }
  - { offset: 0xCC48E, size: 0x8, addend: 0x0, symName: '__ZN112_$LT$numpy..slice_container..PySliceContainer$u20$as$u20$core..convert..From$LT$alloc..vec..Vec$LT$T$GT$$GT$$GT$4from8drop_vec17h20c812138d471425E', symObjAddr: 0x10610, symBinAddr: 0xCB94, symSize: 0x10 }
  - { offset: 0xCC4A3, size: 0x8, addend: 0x0, symName: '__ZN112_$LT$numpy..slice_container..PySliceContainer$u20$as$u20$core..convert..From$LT$alloc..vec..Vec$LT$T$GT$$GT$$GT$4from8drop_vec17h20c812138d471425E', symObjAddr: 0x10610, symBinAddr: 0xCB94, symSize: 0x10 }
  - { offset: 0xCC4BD, size: 0x8, addend: 0x0, symName: '__ZN112_$LT$numpy..slice_container..PySliceContainer$u20$as$u20$core..convert..From$LT$alloc..vec..Vec$LT$T$GT$$GT$$GT$4from8drop_vec17h20c812138d471425E', symObjAddr: 0x10610, symBinAddr: 0xCB94, symSize: 0x10 }
  - { offset: 0xCC4E4, size: 0x8, addend: 0x0, symName: '__ZN112_$LT$numpy..slice_container..PySliceContainer$u20$as$u20$core..convert..From$LT$alloc..vec..Vec$LT$T$GT$$GT$$GT$4from8drop_vec17h20c812138d471425E', symObjAddr: 0x10610, symBinAddr: 0xCB94, symSize: 0x10 }
  - { offset: 0xCC94D, size: 0x8, addend: 0x0, symName: '__ZN94_$LT$numpy..borrow..PyReadonlyArray$LT$T$C$D$GT$$u20$as$u20$pyo3..conversion..FromPyObject$GT$7extract17h36df6bd7422034faE', symObjAddr: 0x5C404, symBinAddr: 0x58080, symSize: 0x37C }
  - { offset: 0xCD48E, size: 0x8, addend: 0x0, symName: '__ZN94_$LT$numpy..borrow..PyReadonlyArray$LT$T$C$D$GT$$u20$as$u20$pyo3..conversion..FromPyObject$GT$7extract17he0da6e87464659a3E', symObjAddr: 0x5C780, symBinAddr: 0x583FC, symSize: 0x37C }
  - { offset: 0xCE842, size: 0x8, addend: 0x0, symName: __ZN5numpy5array7as_view17h39a74a62e0c7e8b6E, symObjAddr: 0x22F08, symBinAddr: 0x1EE04, symSize: 0x220 }
  - { offset: 0xCF117, size: 0x8, addend: 0x0, symName: __ZN5numpy5array7as_view17hf13a386245f0f571E, symObjAddr: 0x23128, symBinAddr: 0x1F024, symSize: 0x28C }
  - { offset: 0xCFFCE, size: 0x8, addend: 0x0, symName: '__ZN72_$LT$alloc..vec..Vec$LT$T$GT$$u20$as$u20$numpy..convert..IntoPyArray$GT$12into_pyarray17ha3eed0282a7dbc6eE', symObjAddr: 0x29890, symBinAddr: 0x2550C, symSize: 0x2D8 }
  - { offset: 0xD9263, size: 0x8, addend: 0x0, symName: '__ZN91_$LT$serde_json..ser..Compound$LT$W$C$F$GT$$u20$as$u20$serde_core..ser..SerializeStruct$GT$15serialize_field17h2b7eb543f4b33900E', symObjAddr: 0x5BDF0, symBinAddr: 0x57A6C, symSize: 0x144 }
  - { offset: 0xD9B00, size: 0x8, addend: 0x0, symName: '__ZN91_$LT$serde_json..ser..Compound$LT$W$C$F$GT$$u20$as$u20$serde_core..ser..SerializeStruct$GT$15serialize_field17h42e06f50355322adE', symObjAddr: 0x5BF34, symBinAddr: 0x57BB0, symSize: 0x2F4 }
  - { offset: 0xDA744, size: 0x8, addend: 0x0, symName: '__ZN91_$LT$serde_json..ser..Compound$LT$W$C$F$GT$$u20$as$u20$serde_core..ser..SerializeStruct$GT$15serialize_field17h8e3980891c6f19fcE', symObjAddr: 0x5C228, symBinAddr: 0x57EA4, symSize: 0x1DC }
  - { offset: 0xDB2D2, size: 0x8, addend: 0x0, symName: '__ZN88_$LT$serde_json..ser..Compound$LT$W$C$F$GT$$u20$as$u20$serde_core..ser..SerializeMap$GT$13serialize_key17h911daf1bcf35a5b8E', symObjAddr: 0x5BAD4, symBinAddr: 0x57750, symSize: 0x31C }
  - { offset: 0xDC782, size: 0x8, addend: 0x0, symName: __ZN10serde_json3ser6to_vec17hba0f9c9ccebcf99cE, symObjAddr: 0xF17C, symBinAddr: 0xB7C0, symSize: 0x13C4 }
  - { offset: 0xE31AF, size: 0x8, addend: 0x0, symName: '__ZN66_$LT$serde_json..error..Error$u20$as$u20$serde_core..de..Error$GT$6custom17h0f7e4ddb666f55e5E', symObjAddr: 0x2979C, symBinAddr: 0xAB1D4, symSize: 0xF4 }
  - { offset: 0xE40CB, size: 0x8, addend: 0x0, symName: '__ZN80_$LT$serde_json..de..MapAccess$LT$R$GT$$u20$as$u20$serde_core..de..MapAccess$GT$13next_key_seed12has_next_key17h24636e55baad66b6E', symObjAddr: 0x4AB14, symBinAddr: 0x46790, symSize: 0x15C }
  - { offset: 0xE423F, size: 0x8, addend: 0x0, symName: '__ZN80_$LT$serde_json..de..MapAccess$LT$R$GT$$u20$as$u20$serde_core..de..MapAccess$GT$13next_key_seed12has_next_key17hd9131bd7e67707c8E', symObjAddr: 0x4AC70, symBinAddr: 0x468EC, symSize: 0x15C }
  - { offset: 0xE6D73, size: 0x8, addend: 0x0, symName: '__ZN80_$LT$serde_json..de..SeqAccess$LT$R$GT$$u20$as$u20$serde_core..de..SeqAccess$GT$17next_element_seed16has_next_element17h911aeb3890dfaadbE', symObjAddr: 0x4ADCC, symBinAddr: 0x46A48, symSize: 0x14C }
  - { offset: 0xE6EE5, size: 0x8, addend: 0x0, symName: '__ZN80_$LT$serde_json..de..SeqAccess$LT$R$GT$$u20$as$u20$serde_core..de..SeqAccess$GT$17next_element_seed16has_next_element17hb62b25358af5c2fbE', symObjAddr: 0x4AF18, symBinAddr: 0x46B94, symSize: 0x14C }
  - { offset: 0xE7B22, size: 0x8, addend: 0x0, symName: __ZN10serde_json2de10from_trait17h8172eb02a11f49b1E, symObjAddr: 0xAEA8, symBinAddr: 0x8020, symSize: 0x2324 }
  - { offset: 0xF4B35, size: 0x8, addend: 0x0, symName: '__ZN83_$LT$rayon_core..job..StackJob$LT$L$C$F$C$R$GT$$u20$as$u20$rayon_core..job..Job$GT$7execute17h05a362f0f6aeb1d2E', symObjAddr: 0x4B36C, symBinAddr: 0x46FE8, symSize: 0x1A4 }
  - { offset: 0xF51E1, size: 0x8, addend: 0x0, symName: '__ZN83_$LT$rayon_core..job..StackJob$LT$L$C$F$C$R$GT$$u20$as$u20$rayon_core..job..Job$GT$7execute17h07b3121f0bad1e7aE', symObjAddr: 0x4B510, symBinAddr: 0x4718C, symSize: 0x1CC }
  - { offset: 0xF5880, size: 0x8, addend: 0x0, symName: '__ZN83_$LT$rayon_core..job..StackJob$LT$L$C$F$C$R$GT$$u20$as$u20$rayon_core..job..Job$GT$7execute17h0d2323bfec3282daE', symObjAddr: 0x4B6DC, symBinAddr: 0x47358, symSize: 0x1D4 }
  - { offset: 0xF5F2C, size: 0x8, addend: 0x0, symName: '__ZN83_$LT$rayon_core..job..StackJob$LT$L$C$F$C$R$GT$$u20$as$u20$rayon_core..job..Job$GT$7execute17h0dbdfce9448d1277E', symObjAddr: 0x4B8B0, symBinAddr: 0x4752C, symSize: 0x13C }
  - { offset: 0xF6199, size: 0x8, addend: 0x0, symName: '__ZN83_$LT$rayon_core..job..StackJob$LT$L$C$F$C$R$GT$$u20$as$u20$rayon_core..job..Job$GT$7execute17h0e90768472673f72E', symObjAddr: 0x4B9EC, symBinAddr: 0x47668, symSize: 0x1A4 }
  - { offset: 0xF6845, size: 0x8, addend: 0x0, symName: '__ZN83_$LT$rayon_core..job..StackJob$LT$L$C$F$C$R$GT$$u20$as$u20$rayon_core..job..Job$GT$7execute17h107051613c76b6c7E', symObjAddr: 0x4BB90, symBinAddr: 0x4780C, symSize: 0x1B0 }
  - { offset: 0xF6D74, size: 0x8, addend: 0x0, symName: '__ZN83_$LT$rayon_core..job..StackJob$LT$L$C$F$C$R$GT$$u20$as$u20$rayon_core..job..Job$GT$7execute17h1073670fcfedc49eE', symObjAddr: 0x4BD40, symBinAddr: 0x479BC, symSize: 0x1CC }
  - { offset: 0xF7413, size: 0x8, addend: 0x0, symName: '__ZN83_$LT$rayon_core..job..StackJob$LT$L$C$F$C$R$GT$$u20$as$u20$rayon_core..job..Job$GT$7execute17h10b3d93fd8000879E', symObjAddr: 0x4BF0C, symBinAddr: 0x47B88, symSize: 0x180 }
  - { offset: 0xF7AD1, size: 0x8, addend: 0x0, symName: '__ZN83_$LT$rayon_core..job..StackJob$LT$L$C$F$C$R$GT$$u20$as$u20$rayon_core..job..Job$GT$7execute17h127c73999c2c43c0E', symObjAddr: 0x4C08C, symBinAddr: 0x47D08, symSize: 0x138 }
  - { offset: 0xF7D3E, size: 0x8, addend: 0x0, symName: '__ZN83_$LT$rayon_core..job..StackJob$LT$L$C$F$C$R$GT$$u20$as$u20$rayon_core..job..Job$GT$7execute17h1510ba4ad00ff40fE', symObjAddr: 0x4C1C4, symBinAddr: 0x47E40, symSize: 0x1DC }
  - { offset: 0xF81AC, size: 0x8, addend: 0x0, symName: '__ZN83_$LT$rayon_core..job..StackJob$LT$L$C$F$C$R$GT$$u20$as$u20$rayon_core..job..Job$GT$7execute17h16338075ef23973bE', symObjAddr: 0x4C3A0, symBinAddr: 0x4801C, symSize: 0x158 }
  - { offset: 0xF8596, size: 0x8, addend: 0x0, symName: '__ZN83_$LT$rayon_core..job..StackJob$LT$L$C$F$C$R$GT$$u20$as$u20$rayon_core..job..Job$GT$7execute17h186e384a8373d689E', symObjAddr: 0x4C4F8, symBinAddr: 0x48174, symSize: 0x1C4 }
  - { offset: 0xF8C5A, size: 0x8, addend: 0x0, symName: '__ZN83_$LT$rayon_core..job..StackJob$LT$L$C$F$C$R$GT$$u20$as$u20$rayon_core..job..Job$GT$7execute17h2183a9f45a51582eE', symObjAddr: 0x4C6BC, symBinAddr: 0x48338, symSize: 0x198 }
  - { offset: 0xF9066, size: 0x8, addend: 0x0, symName: '__ZN83_$LT$rayon_core..job..StackJob$LT$L$C$F$C$R$GT$$u20$as$u20$rayon_core..job..Job$GT$7execute17h2301de62d707974cE', symObjAddr: 0x4C854, symBinAddr: 0x484D0, symSize: 0x1B0 }
  - { offset: 0xF9595, size: 0x8, addend: 0x0, symName: '__ZN83_$LT$rayon_core..job..StackJob$LT$L$C$F$C$R$GT$$u20$as$u20$rayon_core..job..Job$GT$7execute17h26a3bf59454f343bE', symObjAddr: 0x4CA04, symBinAddr: 0x48680, symSize: 0x158 }
  - { offset: 0xF997F, size: 0x8, addend: 0x0, symName: '__ZN83_$LT$rayon_core..job..StackJob$LT$L$C$F$C$R$GT$$u20$as$u20$rayon_core..job..Job$GT$7execute17h2a9bb9b08aee57d6E', symObjAddr: 0x4CB5C, symBinAddr: 0x487D8, symSize: 0x204 }
  - { offset: 0xFA04D, size: 0x8, addend: 0x0, symName: '__ZN83_$LT$rayon_core..job..StackJob$LT$L$C$F$C$R$GT$$u20$as$u20$rayon_core..job..Job$GT$7execute17h2af474b45d3d160bE', symObjAddr: 0x4CD60, symBinAddr: 0x489DC, symSize: 0x14C }
  - { offset: 0xFA437, size: 0x8, addend: 0x0, symName: '__ZN83_$LT$rayon_core..job..StackJob$LT$L$C$F$C$R$GT$$u20$as$u20$rayon_core..job..Job$GT$7execute17h2f85f45f6500c8beE', symObjAddr: 0x4CEAC, symBinAddr: 0x48B28, symSize: 0x244 }
  - { offset: 0xFB069, size: 0x8, addend: 0x0, symName: '__ZN83_$LT$rayon_core..job..StackJob$LT$L$C$F$C$R$GT$$u20$as$u20$rayon_core..job..Job$GT$7execute17h300b49b67a47534dE', symObjAddr: 0x4D0F0, symBinAddr: 0x48D6C, symSize: 0x18C }
  - { offset: 0xFB475, size: 0x8, addend: 0x0, symName: '__ZN83_$LT$rayon_core..job..StackJob$LT$L$C$F$C$R$GT$$u20$as$u20$rayon_core..job..Job$GT$7execute17h31e6fb1027837c75E', symObjAddr: 0x4D27C, symBinAddr: 0x48EF8, symSize: 0x258 }
  - { offset: 0xFBBA9, size: 0x8, addend: 0x0, symName: '__ZN83_$LT$rayon_core..job..StackJob$LT$L$C$F$C$R$GT$$u20$as$u20$rayon_core..job..Job$GT$7execute17h327533d4f5e577dfE', symObjAddr: 0x4D4D4, symBinAddr: 0x49150, symSize: 0x1D0 }
  - { offset: 0xFC255, size: 0x8, addend: 0x0, symName: '__ZN83_$LT$rayon_core..job..StackJob$LT$L$C$F$C$R$GT$$u20$as$u20$rayon_core..job..Job$GT$7execute17h3bf38c8ee494525aE', symObjAddr: 0x4D6A4, symBinAddr: 0x49320, symSize: 0x204 }
  - { offset: 0xFC923, size: 0x8, addend: 0x0, symName: '__ZN83_$LT$rayon_core..job..StackJob$LT$L$C$F$C$R$GT$$u20$as$u20$rayon_core..job..Job$GT$7execute17h3eec21a90b6dbc55E', symObjAddr: 0x4D8A8, symBinAddr: 0x49524, symSize: 0x250 }
  - { offset: 0xFD535, size: 0x8, addend: 0x0, symName: '__ZN83_$LT$rayon_core..job..StackJob$LT$L$C$F$C$R$GT$$u20$as$u20$rayon_core..job..Job$GT$7execute17h414d98c787e14c44E', symObjAddr: 0x4DAF8, symBinAddr: 0x49774, symSize: 0x1C4 }
  - { offset: 0xFDBF9, size: 0x8, addend: 0x0, symName: '__ZN83_$LT$rayon_core..job..StackJob$LT$L$C$F$C$R$GT$$u20$as$u20$rayon_core..job..Job$GT$7execute17h4e62ec6707340f5bE', symObjAddr: 0x4DCBC, symBinAddr: 0x49938, symSize: 0x1D4 }
  - { offset: 0xFE2A5, size: 0x8, addend: 0x0, symName: '__ZN83_$LT$rayon_core..job..StackJob$LT$L$C$F$C$R$GT$$u20$as$u20$rayon_core..job..Job$GT$7execute17h50e451bfcad83defE', symObjAddr: 0x4DE90, symBinAddr: 0x49B0C, symSize: 0x144 }
  - { offset: 0xFE512, size: 0x8, addend: 0x0, symName: '__ZN83_$LT$rayon_core..job..StackJob$LT$L$C$F$C$R$GT$$u20$as$u20$rayon_core..job..Job$GT$7execute17h55e2d54c738613a3E', symObjAddr: 0x4DFD4, symBinAddr: 0x49C50, symSize: 0x1A4 }
  - { offset: 0xFEBBE, size: 0x8, addend: 0x0, symName: '__ZN83_$LT$rayon_core..job..StackJob$LT$L$C$F$C$R$GT$$u20$as$u20$rayon_core..job..Job$GT$7execute17h58ae2620c20c537aE', symObjAddr: 0x4E178, symBinAddr: 0x49DF4, symSize: 0x1C4 }
  - { offset: 0xFF259, size: 0x8, addend: 0x0, symName: '__ZN83_$LT$rayon_core..job..StackJob$LT$L$C$F$C$R$GT$$u20$as$u20$rayon_core..job..Job$GT$7execute17h5a84c0b84aee2a9bE', symObjAddr: 0x4E33C, symBinAddr: 0x49FB8, symSize: 0x158 }
  - { offset: 0xFF643, size: 0x8, addend: 0x0, symName: '__ZN83_$LT$rayon_core..job..StackJob$LT$L$C$F$C$R$GT$$u20$as$u20$rayon_core..job..Job$GT$7execute17h5b1d40c21abd5d98E', symObjAddr: 0x4E494, symBinAddr: 0x4A110, symSize: 0x20C }
  - { offset: 0xFFD11, size: 0x8, addend: 0x0, symName: '__ZN83_$LT$rayon_core..job..StackJob$LT$L$C$F$C$R$GT$$u20$as$u20$rayon_core..job..Job$GT$7execute17h5b2ad7861b6ceb4fE', symObjAddr: 0x4E6A0, symBinAddr: 0x4A31C, symSize: 0x1C4 }
  - { offset: 0x1003B5, size: 0x8, addend: 0x0, symName: '__ZN83_$LT$rayon_core..job..StackJob$LT$L$C$F$C$R$GT$$u20$as$u20$rayon_core..job..Job$GT$7execute17h5b4b2ee092359db4E', symObjAddr: 0x4E864, symBinAddr: 0x4A4E0, symSize: 0x1D0 }
  - { offset: 0x100A61, size: 0x8, addend: 0x0, symName: '__ZN83_$LT$rayon_core..job..StackJob$LT$L$C$F$C$R$GT$$u20$as$u20$rayon_core..job..Job$GT$7execute17h5d994dbfb2a3743eE', symObjAddr: 0x4EA34, symBinAddr: 0x4A6B0, symSize: 0x1CC }
  - { offset: 0x101100, size: 0x8, addend: 0x0, symName: '__ZN83_$LT$rayon_core..job..StackJob$LT$L$C$F$C$R$GT$$u20$as$u20$rayon_core..job..Job$GT$7execute17h635701c62a77b548E', symObjAddr: 0x4EC00, symBinAddr: 0x4A87C, symSize: 0x250 }
  - { offset: 0x101D12, size: 0x8, addend: 0x0, symName: '__ZN83_$LT$rayon_core..job..StackJob$LT$L$C$F$C$R$GT$$u20$as$u20$rayon_core..job..Job$GT$7execute17h63e92d185251496eE', symObjAddr: 0x4EE50, symBinAddr: 0x4AACC, symSize: 0x1A4 }
  - { offset: 0x1023BE, size: 0x8, addend: 0x0, symName: '__ZN83_$LT$rayon_core..job..StackJob$LT$L$C$F$C$R$GT$$u20$as$u20$rayon_core..job..Job$GT$7execute17h69be6856b50583c2E', symObjAddr: 0x4EFF4, symBinAddr: 0x4AC70, symSize: 0x198 }
  - { offset: 0x1027CA, size: 0x8, addend: 0x0, symName: '__ZN83_$LT$rayon_core..job..StackJob$LT$L$C$F$C$R$GT$$u20$as$u20$rayon_core..job..Job$GT$7execute17h69d11833d509b1f2E', symObjAddr: 0x4F18C, symBinAddr: 0x4AE08, symSize: 0x170 }
  - { offset: 0x102CEF, size: 0x8, addend: 0x0, symName: '__ZN83_$LT$rayon_core..job..StackJob$LT$L$C$F$C$R$GT$$u20$as$u20$rayon_core..job..Job$GT$7execute17h743b0e75cb6b0e6cE', symObjAddr: 0x4F2FC, symBinAddr: 0x4AF78, symSize: 0x14C }
  - { offset: 0x1030D9, size: 0x8, addend: 0x0, symName: '__ZN83_$LT$rayon_core..job..StackJob$LT$L$C$F$C$R$GT$$u20$as$u20$rayon_core..job..Job$GT$7execute17h7d9ccb99d36d3d7fE', symObjAddr: 0x4F448, symBinAddr: 0x4B0C4, symSize: 0x1D4 }
  - { offset: 0x103785, size: 0x8, addend: 0x0, symName: '__ZN83_$LT$rayon_core..job..StackJob$LT$L$C$F$C$R$GT$$u20$as$u20$rayon_core..job..Job$GT$7execute17h7dd22cc504ad4a42E', symObjAddr: 0x4F61C, symBinAddr: 0x4B298, symSize: 0x18C }
  - { offset: 0x103B91, size: 0x8, addend: 0x0, symName: '__ZN83_$LT$rayon_core..job..StackJob$LT$L$C$F$C$R$GT$$u20$as$u20$rayon_core..job..Job$GT$7execute17h7f85cc75c8c05cadE', symObjAddr: 0x4F7A8, symBinAddr: 0x4B424, symSize: 0x180 }
  - { offset: 0x10424F, size: 0x8, addend: 0x0, symName: '__ZN83_$LT$rayon_core..job..StackJob$LT$L$C$F$C$R$GT$$u20$as$u20$rayon_core..job..Job$GT$7execute17h8053799490dd82faE', symObjAddr: 0x4F928, symBinAddr: 0x4B5A4, symSize: 0x1CC }
  - { offset: 0x1048FB, size: 0x8, addend: 0x0, symName: '__ZN83_$LT$rayon_core..job..StackJob$LT$L$C$F$C$R$GT$$u20$as$u20$rayon_core..job..Job$GT$7execute17h8124c05dc2e2f04dE', symObjAddr: 0x4FAF4, symBinAddr: 0x4B770, symSize: 0x170 }
  - { offset: 0x104E00, size: 0x8, addend: 0x0, symName: '__ZN83_$LT$rayon_core..job..StackJob$LT$L$C$F$C$R$GT$$u20$as$u20$rayon_core..job..Job$GT$7execute17h8381bda997f8a74fE', symObjAddr: 0x4FC64, symBinAddr: 0x4B8E0, symSize: 0x1CC }
  - { offset: 0x1054AC, size: 0x8, addend: 0x0, symName: '__ZN83_$LT$rayon_core..job..StackJob$LT$L$C$F$C$R$GT$$u20$as$u20$rayon_core..job..Job$GT$7execute17h8499dc538fc6a660E', symObjAddr: 0x4FE30, symBinAddr: 0x4BAAC, symSize: 0x1B4 }
  - { offset: 0x1059DB, size: 0x8, addend: 0x0, symName: '__ZN83_$LT$rayon_core..job..StackJob$LT$L$C$F$C$R$GT$$u20$as$u20$rayon_core..job..Job$GT$7execute17h86f7192de4175d14E', symObjAddr: 0x4FFE4, symBinAddr: 0x4BC60, symSize: 0x158 }
  - { offset: 0x105DC5, size: 0x8, addend: 0x0, symName: '__ZN83_$LT$rayon_core..job..StackJob$LT$L$C$F$C$R$GT$$u20$as$u20$rayon_core..job..Job$GT$7execute17h876006804bcae40cE', symObjAddr: 0x5013C, symBinAddr: 0x4BDB8, symSize: 0x1D4 }
  - { offset: 0x106471, size: 0x8, addend: 0x0, symName: '__ZN83_$LT$rayon_core..job..StackJob$LT$L$C$F$C$R$GT$$u20$as$u20$rayon_core..job..Job$GT$7execute17h8a3cb225a1602468E', symObjAddr: 0x50310, symBinAddr: 0x4BF8C, symSize: 0x1CC }
  - { offset: 0x106B10, size: 0x8, addend: 0x0, symName: '__ZN83_$LT$rayon_core..job..StackJob$LT$L$C$F$C$R$GT$$u20$as$u20$rayon_core..job..Job$GT$7execute17h973570bcb52051e9E', symObjAddr: 0x504DC, symBinAddr: 0x4C158, symSize: 0x1C4 }
  - { offset: 0x1071D4, size: 0x8, addend: 0x0, symName: '__ZN83_$LT$rayon_core..job..StackJob$LT$L$C$F$C$R$GT$$u20$as$u20$rayon_core..job..Job$GT$7execute17ha10d82b6b1b0f2eaE', symObjAddr: 0x506A0, symBinAddr: 0x4C31C, symSize: 0x138 }
  - { offset: 0x107441, size: 0x8, addend: 0x0, symName: '__ZN83_$LT$rayon_core..job..StackJob$LT$L$C$F$C$R$GT$$u20$as$u20$rayon_core..job..Job$GT$7execute17ha1cb08c9e810d8c5E', symObjAddr: 0x507D8, symBinAddr: 0x4C454, symSize: 0x204 }
  - { offset: 0x107B0F, size: 0x8, addend: 0x0, symName: '__ZN83_$LT$rayon_core..job..StackJob$LT$L$C$F$C$R$GT$$u20$as$u20$rayon_core..job..Job$GT$7execute17ha464e47e5a9f0978E', symObjAddr: 0x509DC, symBinAddr: 0x4C658, symSize: 0x18C }
  - { offset: 0x107F1B, size: 0x8, addend: 0x0, symName: '__ZN83_$LT$rayon_core..job..StackJob$LT$L$C$F$C$R$GT$$u20$as$u20$rayon_core..job..Job$GT$7execute17ha8d3ca732a8ff7f3E', symObjAddr: 0x50B68, symBinAddr: 0x4C7E4, symSize: 0x1B8 }
  - { offset: 0x10844A, size: 0x8, addend: 0x0, symName: '__ZN83_$LT$rayon_core..job..StackJob$LT$L$C$F$C$R$GT$$u20$as$u20$rayon_core..job..Job$GT$7execute17hab1ca65d03dea9fdE', symObjAddr: 0x50D20, symBinAddr: 0x4C99C, symSize: 0x158 }
  - { offset: 0x108834, size: 0x8, addend: 0x0, symName: '__ZN83_$LT$rayon_core..job..StackJob$LT$L$C$F$C$R$GT$$u20$as$u20$rayon_core..job..Job$GT$7execute17hb2e0836c92d48098E', symObjAddr: 0x50E78, symBinAddr: 0x4CAF4, symSize: 0x14C }
  - { offset: 0x108C0E, size: 0x8, addend: 0x0, symName: '__ZN83_$LT$rayon_core..job..StackJob$LT$L$C$F$C$R$GT$$u20$as$u20$rayon_core..job..Job$GT$7execute17hbb8ae19b1496d9f4E', symObjAddr: 0x50FC4, symBinAddr: 0x4CC40, symSize: 0x20C }
  - { offset: 0x1092DC, size: 0x8, addend: 0x0, symName: '__ZN83_$LT$rayon_core..job..StackJob$LT$L$C$F$C$R$GT$$u20$as$u20$rayon_core..job..Job$GT$7execute17hc4b54da60da5b33fE', symObjAddr: 0x511D0, symBinAddr: 0x4CE4C, symSize: 0x150 }
  - { offset: 0x1096C6, size: 0x8, addend: 0x0, symName: '__ZN83_$LT$rayon_core..job..StackJob$LT$L$C$F$C$R$GT$$u20$as$u20$rayon_core..job..Job$GT$7execute17hc790b59571089364E', symObjAddr: 0x51320, symBinAddr: 0x4CF9C, symSize: 0x1A4 }
  - { offset: 0x109D72, size: 0x8, addend: 0x0, symName: '__ZN83_$LT$rayon_core..job..StackJob$LT$L$C$F$C$R$GT$$u20$as$u20$rayon_core..job..Job$GT$7execute17hc8e34b4a41f32095E', symObjAddr: 0x514C4, symBinAddr: 0x4D140, symSize: 0x1A4 }
  - { offset: 0x10A41E, size: 0x8, addend: 0x0, symName: '__ZN83_$LT$rayon_core..job..StackJob$LT$L$C$F$C$R$GT$$u20$as$u20$rayon_core..job..Job$GT$7execute17hc91fbd4914da7977E', symObjAddr: 0x51668, symBinAddr: 0x4D2E4, symSize: 0x18C }
  - { offset: 0x10A82A, size: 0x8, addend: 0x0, symName: '__ZN83_$LT$rayon_core..job..StackJob$LT$L$C$F$C$R$GT$$u20$as$u20$rayon_core..job..Job$GT$7execute17hd74e78cef15fb09bE', symObjAddr: 0x517F4, symBinAddr: 0x4D470, symSize: 0x1C4 }
  - { offset: 0x10AECE, size: 0x8, addend: 0x0, symName: '__ZN83_$LT$rayon_core..job..StackJob$LT$L$C$F$C$R$GT$$u20$as$u20$rayon_core..job..Job$GT$7execute17hd8050525242c5ae2E', symObjAddr: 0x519B8, symBinAddr: 0x4D634, symSize: 0x20C }
  - { offset: 0x10B59C, size: 0x8, addend: 0x0, symName: '__ZN83_$LT$rayon_core..job..StackJob$LT$L$C$F$C$R$GT$$u20$as$u20$rayon_core..job..Job$GT$7execute17hd8f2fac529525785E', symObjAddr: 0x51BC4, symBinAddr: 0x4D840, symSize: 0x1B0 }
  - { offset: 0x10BC20, size: 0x8, addend: 0x0, symName: '__ZN83_$LT$rayon_core..job..StackJob$LT$L$C$F$C$R$GT$$u20$as$u20$rayon_core..job..Job$GT$7execute17hd9ff1ff75c8369c4E', symObjAddr: 0x51D74, symBinAddr: 0x4D9F0, symSize: 0x1D4 }
  - { offset: 0x10C2CC, size: 0x8, addend: 0x0, symName: '__ZN83_$LT$rayon_core..job..StackJob$LT$L$C$F$C$R$GT$$u20$as$u20$rayon_core..job..Job$GT$7execute17he007ddb484fc6de7E', symObjAddr: 0x51F48, symBinAddr: 0x4DBC4, symSize: 0x1B8 }
  - { offset: 0x10C7FB, size: 0x8, addend: 0x0, symName: '__ZN83_$LT$rayon_core..job..StackJob$LT$L$C$F$C$R$GT$$u20$as$u20$rayon_core..job..Job$GT$7execute17he4e736faee4add87E', symObjAddr: 0x52100, symBinAddr: 0x4DD7C, symSize: 0x1E8 }
  - { offset: 0x10CF09, size: 0x8, addend: 0x0, symName: '__ZN83_$LT$rayon_core..job..StackJob$LT$L$C$F$C$R$GT$$u20$as$u20$rayon_core..job..Job$GT$7execute17he558ba63466f58f0E', symObjAddr: 0x522E8, symBinAddr: 0x4DF64, symSize: 0x20C }
  - { offset: 0x10D5D7, size: 0x8, addend: 0x0, symName: '__ZN83_$LT$rayon_core..job..StackJob$LT$L$C$F$C$R$GT$$u20$as$u20$rayon_core..job..Job$GT$7execute17hef355b7787b2c03aE', symObjAddr: 0x524F4, symBinAddr: 0x4E170, symSize: 0x198 }
  - { offset: 0x10D9E3, size: 0x8, addend: 0x0, symName: '__ZN83_$LT$rayon_core..job..StackJob$LT$L$C$F$C$R$GT$$u20$as$u20$rayon_core..job..Job$GT$7execute17hf06cbe8b725c78e9E', symObjAddr: 0x5268C, symBinAddr: 0x4E308, symSize: 0x138 }
  - { offset: 0x10DC50, size: 0x8, addend: 0x0, symName: '__ZN83_$LT$rayon_core..job..StackJob$LT$L$C$F$C$R$GT$$u20$as$u20$rayon_core..job..Job$GT$7execute17hf1bfb80fe0729fa7E', symObjAddr: 0x527C4, symBinAddr: 0x4E440, symSize: 0x198 }
  - { offset: 0x10E05C, size: 0x8, addend: 0x0, symName: '__ZN83_$LT$rayon_core..job..StackJob$LT$L$C$F$C$R$GT$$u20$as$u20$rayon_core..job..Job$GT$7execute17hf41c16ec161637c4E', symObjAddr: 0x5295C, symBinAddr: 0x4E5D8, symSize: 0x1B0 }
  - { offset: 0x10E58B, size: 0x8, addend: 0x0, symName: '__ZN83_$LT$rayon_core..job..StackJob$LT$L$C$F$C$R$GT$$u20$as$u20$rayon_core..job..Job$GT$7execute17hf439960981ab77b3E', symObjAddr: 0x52B0C, symBinAddr: 0x4E788, symSize: 0x144 }
  - { offset: 0x10E7F8, size: 0x8, addend: 0x0, symName: '__ZN83_$LT$rayon_core..job..StackJob$LT$L$C$F$C$R$GT$$u20$as$u20$rayon_core..job..Job$GT$7execute17hf7f89166cbe26769E', symObjAddr: 0x52C50, symBinAddr: 0x4E8CC, symSize: 0x204 }
  - { offset: 0x10EEC6, size: 0x8, addend: 0x0, symName: '__ZN83_$LT$rayon_core..job..StackJob$LT$L$C$F$C$R$GT$$u20$as$u20$rayon_core..job..Job$GT$7execute17hf82e767c3e03e37aE', symObjAddr: 0x52E54, symBinAddr: 0x4EAD0, symSize: 0x204 }
  - { offset: 0x10F594, size: 0x8, addend: 0x0, symName: '__ZN83_$LT$rayon_core..job..StackJob$LT$L$C$F$C$R$GT$$u20$as$u20$rayon_core..job..Job$GT$7execute17hfa4f5e3030c2fb9dE', symObjAddr: 0x53058, symBinAddr: 0x4ECD4, symSize: 0x18C }
  - { offset: 0x10FEC7, size: 0x8, addend: 0x0, symName: '__ZN81_$LT$rayon_core..latch..LatchRef$LT$L$GT$$u20$as$u20$rayon_core..latch..Latch$GT$3set17h5c70f120903131a5E', symObjAddr: 0x4B064, symBinAddr: 0x46CE0, symSize: 0x118 }
  - { offset: 0x111459, size: 0x8, addend: 0x0, symName: '__ZN10rayon_core4join12join_context28_$u7b$$u7b$closure$u7d$$u7d$17h061933d142e098eaE', symObjAddr: 0x7A0, symBinAddr: 0xFCC, symSize: 0x394 }
  - { offset: 0x112203, size: 0x8, addend: 0x0, symName: '__ZN10rayon_core4join12join_context28_$u7b$$u7b$closure$u7d$$u7d$17h084253087fa6dac6E', symObjAddr: 0xB34, symBinAddr: 0x1360, symSize: 0x304 }
  - { offset: 0x112F62, size: 0x8, addend: 0x0, symName: '__ZN10rayon_core4join12join_context28_$u7b$$u7b$closure$u7d$$u7d$17h153066eaf3a9d714E', symObjAddr: 0xE38, symBinAddr: 0x1664, symSize: 0x304 }
  - { offset: 0x113CC1, size: 0x8, addend: 0x0, symName: '__ZN10rayon_core4join12join_context28_$u7b$$u7b$closure$u7d$$u7d$17h2032b514692085b8E', symObjAddr: 0x113C, symBinAddr: 0x1968, symSize: 0x394 }
  - { offset: 0x114A6B, size: 0x8, addend: 0x0, symName: '__ZN10rayon_core4join12join_context28_$u7b$$u7b$closure$u7d$$u7d$17h2185f18c134f4d20E', symObjAddr: 0x14D0, symBinAddr: 0x1CFC, symSize: 0x34C }
  - { offset: 0x1157F4, size: 0x8, addend: 0x0, symName: '__ZN10rayon_core4join12join_context28_$u7b$$u7b$closure$u7d$$u7d$17h37c3b6347e132cf2E', symObjAddr: 0x181C, symBinAddr: 0x2048, symSize: 0x3D4 }
  - { offset: 0x1168B2, size: 0x8, addend: 0x0, symName: '__ZN10rayon_core4join12join_context28_$u7b$$u7b$closure$u7d$$u7d$17h4aa91419585fe4bbE', symObjAddr: 0x1BF0, symBinAddr: 0x241C, symSize: 0x398 }
  - { offset: 0x117632, size: 0x8, addend: 0x0, symName: '__ZN10rayon_core4join12join_context28_$u7b$$u7b$closure$u7d$$u7d$17h53087c7003015a64E', symObjAddr: 0x1F88, symBinAddr: 0x27B4, symSize: 0x2F0 }
  - { offset: 0x1183CB, size: 0x8, addend: 0x0, symName: '__ZN10rayon_core4join12join_context28_$u7b$$u7b$closure$u7d$$u7d$17h5acd99a346fd9016E', symObjAddr: 0x2278, symBinAddr: 0x2AA4, symSize: 0x304 }
  - { offset: 0x11912A, size: 0x8, addend: 0x0, symName: '__ZN10rayon_core4join12join_context28_$u7b$$u7b$closure$u7d$$u7d$17h62932ebaa77e896eE', symObjAddr: 0x257C, symBinAddr: 0x2DA8, symSize: 0x3CC }
  - { offset: 0x119FDB, size: 0x8, addend: 0x0, symName: '__ZN10rayon_core4join12join_context28_$u7b$$u7b$closure$u7d$$u7d$17h6b5166339e49cba4E', symObjAddr: 0x2948, symBinAddr: 0x3174, symSize: 0x304 }
  - { offset: 0x11AD3A, size: 0x8, addend: 0x0, symName: '__ZN10rayon_core4join12join_context28_$u7b$$u7b$closure$u7d$$u7d$17h6f580acf982d822dE', symObjAddr: 0x2C4C, symBinAddr: 0x3478, symSize: 0x4A8 }
  - { offset: 0x11C647, size: 0x8, addend: 0x0, symName: '__ZN10rayon_core4join12join_context28_$u7b$$u7b$closure$u7d$$u7d$17h7cc457ca92d988e4E', symObjAddr: 0x30F4, symBinAddr: 0x3920, symSize: 0x360 }
  - { offset: 0x11D401, size: 0x8, addend: 0x0, symName: '__ZN10rayon_core4join12join_context28_$u7b$$u7b$closure$u7d$$u7d$17h81f83b59e8c6ba22E', symObjAddr: 0x3454, symBinAddr: 0x3C80, symSize: 0x360 }
  - { offset: 0x11E1BB, size: 0x8, addend: 0x0, symName: '__ZN10rayon_core4join12join_context28_$u7b$$u7b$closure$u7d$$u7d$17h84ba5b2297dea601E', symObjAddr: 0x37B4, symBinAddr: 0x3FE0, symSize: 0x304 }
  - { offset: 0x11EF1A, size: 0x8, addend: 0x0, symName: '__ZN10rayon_core4join12join_context28_$u7b$$u7b$closure$u7d$$u7d$17h8adf8c5af967a705E', symObjAddr: 0x3AB8, symBinAddr: 0x42E4, symSize: 0x394 }
  - { offset: 0x11FCC4, size: 0x8, addend: 0x0, symName: '__ZN10rayon_core4join12join_context28_$u7b$$u7b$closure$u7d$$u7d$17h94279d7977a1db1fE', symObjAddr: 0x3E4C, symBinAddr: 0x4678, symSize: 0x3E0 }
  - { offset: 0x120D01, size: 0x8, addend: 0x0, symName: '__ZN10rayon_core4join12join_context28_$u7b$$u7b$closure$u7d$$u7d$17hb33592de7d081b23E', symObjAddr: 0x422C, symBinAddr: 0x4A58, symSize: 0x360 }
  - { offset: 0x121ABB, size: 0x8, addend: 0x0, symName: '__ZN10rayon_core4join12join_context28_$u7b$$u7b$closure$u7d$$u7d$17hb9c8eae4366dfb48E', symObjAddr: 0x458C, symBinAddr: 0x4DB8, symSize: 0x340 }
  - { offset: 0x12281A, size: 0x8, addend: 0x0, symName: '__ZN10rayon_core4join12join_context28_$u7b$$u7b$closure$u7d$$u7d$17hbfd7b5699f615784E', symObjAddr: 0x48CC, symBinAddr: 0x50F8, symSize: 0x394 }
  - { offset: 0x1235C4, size: 0x8, addend: 0x0, symName: '__ZN10rayon_core4join12join_context28_$u7b$$u7b$closure$u7d$$u7d$17hc9840cc0996fd1fbE', symObjAddr: 0x4C60, symBinAddr: 0x548C, symSize: 0x4C4 }
  - { offset: 0x124ED3, size: 0x8, addend: 0x0, symName: '__ZN10rayon_core4join12join_context28_$u7b$$u7b$closure$u7d$$u7d$17hd36460590c2f71d4E', symObjAddr: 0x5124, symBinAddr: 0x5950, symSize: 0x34C }
  - { offset: 0x125C5C, size: 0x8, addend: 0x0, symName: '__ZN10rayon_core4join12join_context28_$u7b$$u7b$closure$u7d$$u7d$17hd71d404592dbc96fE', symObjAddr: 0x5470, symBinAddr: 0x5C9C, symSize: 0x4C4 }
  - { offset: 0x12756B, size: 0x8, addend: 0x0, symName: '__ZN10rayon_core4join12join_context28_$u7b$$u7b$closure$u7d$$u7d$17he52ff3bf22717d7dE', symObjAddr: 0x5934, symBinAddr: 0x6160, symSize: 0x2F0 }
  - { offset: 0x128304, size: 0x8, addend: 0x0, symName: '__ZN10rayon_core4join12join_context28_$u7b$$u7b$closure$u7d$$u7d$17hff94b623403ac4bbE', symObjAddr: 0x5C24, symBinAddr: 0x6450, symSize: 0x304 }
  - { offset: 0x12B33D, size: 0x8, addend: 0x0, symName: __ZN15crossbeam_epoch8deferred8Deferred3new4call17h2dbf97bb0852c410E, symObjAddr: 0x10CA0, symBinAddr: 0xD044, symSize: 0x3C }
  - { offset: 0x12B82B, size: 0x8, addend: 0x0, symName: __ZN15crossbeam_epoch7default11with_handle17h2dfbbd1231877b98E, symObjAddr: 0x10AE0, symBinAddr: 0xCE84, symSize: 0x1C0 }
  - { offset: 0x12E4D2, size: 0x8, addend: 0x0, symName: __ZN5rayon4iter8plumbing24bridge_producer_consumer6helper17h049ec293ce9386e0E, symObjAddr: 0x23540, symBinAddr: 0x1F2B0, symSize: 0x464 }
  - { offset: 0x12F355, size: 0x8, addend: 0x0, symName: __ZN5rayon4iter8plumbing24bridge_producer_consumer6helper17h0b73d19a7c0cc2e3E, symObjAddr: 0x239A4, symBinAddr: 0x1F714, symSize: 0x2C0 }
  - { offset: 0x12FA53, size: 0x8, addend: 0x0, symName: __ZN5rayon4iter8plumbing24bridge_producer_consumer6helper17h17ab60325f0db473E, symObjAddr: 0x23C64, symBinAddr: 0x1F9D4, symSize: 0x334 }
  - { offset: 0x13036D, size: 0x8, addend: 0x0, symName: __ZN5rayon4iter8plumbing24bridge_producer_consumer6helper17h2a9ca7ec4e38ebeeE, symObjAddr: 0x23F98, symBinAddr: 0x1FD08, symSize: 0x2A8 }
  - { offset: 0x130A7C, size: 0x8, addend: 0x0, symName: __ZN5rayon4iter8plumbing24bridge_producer_consumer6helper17h2ad35101d41eb59dE, symObjAddr: 0x24240, symBinAddr: 0x1FFB0, symSize: 0x3D4 }
  - { offset: 0x1314F1, size: 0x8, addend: 0x0, symName: __ZN5rayon4iter8plumbing24bridge_producer_consumer6helper17h2d1e03ede61687f5E, symObjAddr: 0x24614, symBinAddr: 0x20384, symSize: 0x3D0 }
  - { offset: 0x1323E8, size: 0x8, addend: 0x0, symName: __ZN5rayon4iter8plumbing24bridge_producer_consumer6helper17h458c6b6d7648d383E, symObjAddr: 0x249E4, symBinAddr: 0x20754, symSize: 0x2E8 }
  - { offset: 0x132C3A, size: 0x8, addend: 0x0, symName: __ZN5rayon4iter8plumbing24bridge_producer_consumer6helper17h473fa2f3a21d6ea5E, symObjAddr: 0x24CCC, symBinAddr: 0x20A3C, symSize: 0x38C }
  - { offset: 0x1335CD, size: 0x8, addend: 0x0, symName: __ZN5rayon4iter8plumbing24bridge_producer_consumer6helper17h4bd6a5ae0b3e5202E, symObjAddr: 0x25058, symBinAddr: 0x20DC8, symSize: 0x3F0 }
  - { offset: 0x133FA8, size: 0x8, addend: 0x0, symName: __ZN5rayon4iter8plumbing24bridge_producer_consumer6helper17h5e461d99fad14cacE, symObjAddr: 0x25448, symBinAddr: 0x211B8, symSize: 0x510 }
  - { offset: 0x1354E8, size: 0x8, addend: 0x0, symName: __ZN5rayon4iter8plumbing24bridge_producer_consumer6helper17h5e79102dd4283d83E, symObjAddr: 0x25958, symBinAddr: 0x216C8, symSize: 0x398 }
  - { offset: 0x135FD7, size: 0x8, addend: 0x0, symName: __ZN5rayon4iter8plumbing24bridge_producer_consumer6helper17h5fec8774efd14431E, symObjAddr: 0x25CF0, symBinAddr: 0x21A60, symSize: 0x4B0 }
  - { offset: 0x137012, size: 0x8, addend: 0x0, symName: __ZN5rayon4iter8plumbing24bridge_producer_consumer6helper17h62b6988aa919ede3E, symObjAddr: 0x261A0, symBinAddr: 0x21F10, symSize: 0x2E8 }
  - { offset: 0x137864, size: 0x8, addend: 0x0, symName: __ZN5rayon4iter8plumbing24bridge_producer_consumer6helper17h6db3dbec002ebd76E, symObjAddr: 0x26488, symBinAddr: 0x221F8, symSize: 0x334 }
  - { offset: 0x13816C, size: 0x8, addend: 0x0, symName: __ZN5rayon4iter8plumbing24bridge_producer_consumer6helper17h7213e7ef35303700E, symObjAddr: 0x267BC, symBinAddr: 0x2252C, symSize: 0x334 }
  - { offset: 0x138A86, size: 0x8, addend: 0x0, symName: __ZN5rayon4iter8plumbing24bridge_producer_consumer6helper17h84a47a3feedffbceE, symObjAddr: 0x26AF0, symBinAddr: 0x22860, symSize: 0x6F0 }
  - { offset: 0x139956, size: 0x8, addend: 0x0, symName: __ZN5rayon4iter8plumbing24bridge_producer_consumer6helper17ha5590e4910896e26E, symObjAddr: 0x271E0, symBinAddr: 0x22F50, symSize: 0x374 }
  - { offset: 0x13A3A0, size: 0x8, addend: 0x0, symName: __ZN5rayon4iter8plumbing24bridge_producer_consumer6helper17hb203b73a4a36fe59E, symObjAddr: 0x27554, symBinAddr: 0x232C4, symSize: 0x704 }
  - { offset: 0x13B4D4, size: 0x8, addend: 0x0, symName: __ZN5rayon4iter8plumbing24bridge_producer_consumer6helper17hbb1f855eee6408c1E, symObjAddr: 0x27C58, symBinAddr: 0x239C8, symSize: 0x510 }
  - { offset: 0x13CA14, size: 0x8, addend: 0x0, symName: __ZN5rayon4iter8plumbing24bridge_producer_consumer6helper17hcdfab97749aa83c9E, symObjAddr: 0x28168, symBinAddr: 0x23ED8, symSize: 0x334 }
  - { offset: 0x13D31C, size: 0x8, addend: 0x0, symName: __ZN5rayon4iter8plumbing24bridge_producer_consumer6helper17hd3435497dd693005E, symObjAddr: 0x2849C, symBinAddr: 0x2420C, symSize: 0x334 }
  - { offset: 0x13DC36, size: 0x8, addend: 0x0, symName: __ZN5rayon4iter8plumbing24bridge_producer_consumer6helper17hda96af375625b64bE, symObjAddr: 0x287D0, symBinAddr: 0x24540, symSize: 0x360 }
  - { offset: 0x13E4BB, size: 0x8, addend: 0x0, symName: __ZN5rayon4iter8plumbing24bridge_producer_consumer6helper17he5767e0eab163f59E, symObjAddr: 0x28B30, symBinAddr: 0x248A0, symSize: 0x2E8 }
  - { offset: 0x13ED0D, size: 0x8, addend: 0x0, symName: __ZN5rayon4iter8plumbing24bridge_producer_consumer6helper17hecf121b25b8a84c5E, symObjAddr: 0x28E18, symBinAddr: 0x24B88, symSize: 0x398 }
  - { offset: 0x13F7A0, size: 0x8, addend: 0x0, symName: __ZN5rayon4iter8plumbing24bridge_producer_consumer6helper17hfe9a5ec0d5480858E, symObjAddr: 0x291B0, symBinAddr: 0x24F20, symSize: 0x538 }
  - { offset: 0x14A81D, size: 0x8, addend: 0x0, symName: __ZN5rayon4iter13from_par_iter16collect_extended17h1e2ae96642cd10f0E, symObjAddr: 0x233B4, symBinAddr: 0xAB048, symSize: 0x18C }
  - { offset: 0x150B40, size: 0x8, addend: 0x0, symName: __ZN10rayon_core8registry12WorkerThread14take_local_job17h3b9d74c56d22dc0fE, symObjAddr: 0x5F28, symBinAddr: 0x6754, symSize: 0x2E0 }
  - { offset: 0x151F3A, size: 0x8, addend: 0x0, symName: __ZN10rayon_core8registry8Registry14in_worker_cold17h0b10948c7b247f16E, symObjAddr: 0x6208, symBinAddr: 0xA6718, symSize: 0xF4 }
  - { offset: 0x15226D, size: 0x8, addend: 0x0, symName: __ZN10rayon_core8registry8Registry14in_worker_cold17h233e2d7932b95eb0E, symObjAddr: 0x62FC, symBinAddr: 0xA680C, symSize: 0x108 }
  - { offset: 0x1525F4, size: 0x8, addend: 0x0, symName: __ZN10rayon_core8registry8Registry14in_worker_cold17h2bcb6fc114c385ffE, symObjAddr: 0x6404, symBinAddr: 0xA6914, symSize: 0x140 }
  - { offset: 0x15290A, size: 0x8, addend: 0x0, symName: __ZN10rayon_core8registry8Registry14in_worker_cold17h3dd76c6fb979467dE, symObjAddr: 0x6544, symBinAddr: 0xA6A54, symSize: 0x130 }
  - { offset: 0x152C76, size: 0x8, addend: 0x0, symName: __ZN10rayon_core8registry8Registry14in_worker_cold17h3e906966b3bccf94E, symObjAddr: 0x6674, symBinAddr: 0xA6B84, symSize: 0x190 }
  - { offset: 0x152F90, size: 0x8, addend: 0x0, symName: __ZN10rayon_core8registry8Registry14in_worker_cold17h475f379e5a882ee2E, symObjAddr: 0x6804, symBinAddr: 0xA6D14, symSize: 0x140 }
  - { offset: 0x1532A6, size: 0x8, addend: 0x0, symName: __ZN10rayon_core8registry8Registry14in_worker_cold17h500e0731d22a33d4E, symObjAddr: 0x6944, symBinAddr: 0xA6E54, symSize: 0x104 }
  - { offset: 0x15362D, size: 0x8, addend: 0x0, symName: __ZN10rayon_core8registry8Registry14in_worker_cold17h5a9823f3c740db55E, symObjAddr: 0x6A48, symBinAddr: 0xA6F58, symSize: 0x140 }
  - { offset: 0x153943, size: 0x8, addend: 0x0, symName: __ZN10rayon_core8registry8Registry14in_worker_cold17h6d371bfe4039bf54E, symObjAddr: 0x6B88, symBinAddr: 0xA7098, symSize: 0x130 }
  - { offset: 0x153C59, size: 0x8, addend: 0x0, symName: __ZN10rayon_core8registry8Registry14in_worker_cold17h70eff2e01f5562c1E, symObjAddr: 0x6CB8, symBinAddr: 0xA71C8, symSize: 0x108 }
  - { offset: 0x153FFA, size: 0x8, addend: 0x0, symName: __ZN10rayon_core8registry8Registry14in_worker_cold17h787d3c815ceb85f7E, symObjAddr: 0x6DC0, symBinAddr: 0xA72D0, symSize: 0x140 }
  - { offset: 0x15433E, size: 0x8, addend: 0x0, symName: __ZN10rayon_core8registry8Registry14in_worker_cold17h85bc0826e92ca8f5E, symObjAddr: 0x6F00, symBinAddr: 0xA7410, symSize: 0x130 }
  - { offset: 0x1546C4, size: 0x8, addend: 0x0, symName: __ZN10rayon_core8registry8Registry14in_worker_cold17h8b47053dfc372f5cE, symObjAddr: 0x7030, symBinAddr: 0xA7540, symSize: 0x130 }
  - { offset: 0x154A08, size: 0x8, addend: 0x0, symName: __ZN10rayon_core8registry8Registry14in_worker_cold17h8bd58f9c7b0f7b34E, symObjAddr: 0x7160, symBinAddr: 0xA7670, symSize: 0x130 }
  - { offset: 0x154D2B, size: 0x8, addend: 0x0, symName: __ZN10rayon_core8registry8Registry14in_worker_cold17h8ddb89ecc3cbce29E, symObjAddr: 0x7290, symBinAddr: 0xA77A0, symSize: 0x140 }
  - { offset: 0x15506F, size: 0x8, addend: 0x0, symName: __ZN10rayon_core8registry8Registry14in_worker_cold17h969a78429cdf1146E, symObjAddr: 0x73D0, symBinAddr: 0xA78E0, symSize: 0x108 }
  - { offset: 0x1553AD, size: 0x8, addend: 0x0, symName: __ZN10rayon_core8registry8Registry14in_worker_cold17h99df3d004a46719cE, symObjAddr: 0x74D8, symBinAddr: 0xA79E8, symSize: 0x13C }
  - { offset: 0x1556F1, size: 0x8, addend: 0x0, symName: __ZN10rayon_core8registry8Registry14in_worker_cold17hae47ca245dc029e6E, symObjAddr: 0x7614, symBinAddr: 0xA7B24, symSize: 0x130 }
  - { offset: 0x155A07, size: 0x8, addend: 0x0, symName: __ZN10rayon_core8registry8Registry14in_worker_cold17hb2b0874820a3483cE, symObjAddr: 0x7744, symBinAddr: 0xA7C54, symSize: 0x108 }
  - { offset: 0x155D38, size: 0x8, addend: 0x0, symName: __ZN10rayon_core8registry8Registry14in_worker_cold17hb7783153d590f4a8E, symObjAddr: 0x784C, symBinAddr: 0xA7D5C, symSize: 0x100 }
  - { offset: 0x156069, size: 0x8, addend: 0x0, symName: __ZN10rayon_core8registry8Registry14in_worker_cold17hbab454cd6427318cE, symObjAddr: 0x794C, symBinAddr: 0xA7E5C, symSize: 0x100 }
  - { offset: 0x15640A, size: 0x8, addend: 0x0, symName: __ZN10rayon_core8registry8Registry14in_worker_cold17hda3f12e880b651fdE, symObjAddr: 0x7A4C, symBinAddr: 0xA7F5C, symSize: 0x130 }
  - { offset: 0x15674E, size: 0x8, addend: 0x0, symName: __ZN10rayon_core8registry8Registry14in_worker_cold17he1d596589dae4be8E, symObjAddr: 0x7B7C, symBinAddr: 0xA808C, symSize: 0x108 }
  - { offset: 0x156AEF, size: 0x8, addend: 0x0, symName: __ZN10rayon_core8registry8Registry14in_worker_cold17he5daa0a68e65f4acE, symObjAddr: 0x7C84, symBinAddr: 0xA8194, symSize: 0x130 }
  - { offset: 0x156E33, size: 0x8, addend: 0x0, symName: __ZN10rayon_core8registry8Registry14in_worker_cold17hfdab87b240d6873aE, symObjAddr: 0x7DB4, symBinAddr: 0xA82C4, symSize: 0x140 }
  - { offset: 0x1570D6, size: 0x8, addend: 0x0, symName: __ZN10rayon_core8registry8Registry15in_worker_cross17h0d1c296238d4c9b2E, symObjAddr: 0x7EF4, symBinAddr: 0xA8404, symSize: 0x110 }
  - { offset: 0x15733A, size: 0x8, addend: 0x0, symName: __ZN10rayon_core8registry8Registry15in_worker_cross17h0fd62120f2814278E, symObjAddr: 0x8004, symBinAddr: 0xA8514, symSize: 0xD8 }
  - { offset: 0x1575B9, size: 0x8, addend: 0x0, symName: __ZN10rayon_core8registry8Registry15in_worker_cross17h19ddb5b6eb58949aE, symObjAddr: 0x80DC, symBinAddr: 0xA85EC, symSize: 0xE0 }
  - { offset: 0x157838, size: 0x8, addend: 0x0, symName: __ZN10rayon_core8registry8Registry15in_worker_cross17h2f56f860409db6beE, symObjAddr: 0x81BC, symBinAddr: 0xA86CC, symSize: 0xD8 }
  - { offset: 0x157AB7, size: 0x8, addend: 0x0, symName: __ZN10rayon_core8registry8Registry15in_worker_cross17h30e51414e41c3f2aE, symObjAddr: 0x8294, symBinAddr: 0xA87A4, symSize: 0x108 }
  - { offset: 0x157D1B, size: 0x8, addend: 0x0, symName: __ZN10rayon_core8registry8Registry15in_worker_cross17h3573f6137a8f14e1E, symObjAddr: 0x839C, symBinAddr: 0xA88AC, symSize: 0xE0 }
  - { offset: 0x157F9A, size: 0x8, addend: 0x0, symName: __ZN10rayon_core8registry8Registry15in_worker_cross17h549bde2ee3720b23E, symObjAddr: 0x847C, symBinAddr: 0xA898C, symSize: 0x108 }
  - { offset: 0x15820B, size: 0x8, addend: 0x0, symName: __ZN10rayon_core8registry8Registry15in_worker_cross17h593c2987e68c8f98E, symObjAddr: 0x8584, symBinAddr: 0xA8A94, symSize: 0x108 }
  - { offset: 0x1584A1, size: 0x8, addend: 0x0, symName: __ZN10rayon_core8registry8Registry15in_worker_cross17h62a7018522e508c9E, symObjAddr: 0x868C, symBinAddr: 0xA8B9C, symSize: 0x108 }
  - { offset: 0x158705, size: 0x8, addend: 0x0, symName: __ZN10rayon_core8registry8Registry15in_worker_cross17h648f80cb24c4039fE, symObjAddr: 0x8794, symBinAddr: 0xA8CA4, symSize: 0x110 }
  - { offset: 0x158969, size: 0x8, addend: 0x0, symName: __ZN10rayon_core8registry8Registry15in_worker_cross17h68e7d93563fb5f00E, symObjAddr: 0x88A4, symBinAddr: 0xA8DB4, symSize: 0x14C }
  - { offset: 0x158C09, size: 0x8, addend: 0x0, symName: __ZN10rayon_core8registry8Registry15in_worker_cross17h74409152d67ce8c0E, symObjAddr: 0x89F0, symBinAddr: 0xA8F00, symSize: 0x110 }
  - { offset: 0x158E9F, size: 0x8, addend: 0x0, symName: __ZN10rayon_core8registry8Registry15in_worker_cross17h764c08998775f43cE, symObjAddr: 0x8B00, symBinAddr: 0xA9010, symSize: 0x108 }
  - { offset: 0x159103, size: 0x8, addend: 0x0, symName: __ZN10rayon_core8registry8Registry15in_worker_cross17h8b0f8606223422e5E, symObjAddr: 0x8C08, symBinAddr: 0xA9118, symSize: 0xDC }
  - { offset: 0x1593B2, size: 0x8, addend: 0x0, symName: __ZN10rayon_core8registry8Registry15in_worker_cross17h91c548f4d6a05f1bE, symObjAddr: 0x8CE4, symBinAddr: 0xA91F4, symSize: 0x110 }
  - { offset: 0x159616, size: 0x8, addend: 0x0, symName: __ZN10rayon_core8registry8Registry15in_worker_cross17hbf1c1e5285fe7462E, symObjAddr: 0x8DF4, symBinAddr: 0xA9304, symSize: 0xE0 }
  - { offset: 0x159895, size: 0x8, addend: 0x0, symName: __ZN10rayon_core8registry8Registry15in_worker_cross17hca0acd5a2b8b35f7E, symObjAddr: 0x8ED4, symBinAddr: 0xA93E4, symSize: 0xE0 }
  - { offset: 0x159B21, size: 0x8, addend: 0x0, symName: __ZN10rayon_core8registry8Registry15in_worker_cross17hce8427741a6a3c3bE, symObjAddr: 0x8FB4, symBinAddr: 0xA94C4, symSize: 0x108 }
  - { offset: 0x159DB7, size: 0x8, addend: 0x0, symName: __ZN10rayon_core8registry8Registry15in_worker_cross17hd2a9a9337d953e00E, symObjAddr: 0x90BC, symBinAddr: 0xA95CC, symSize: 0x110 }
  - { offset: 0x15A028, size: 0x8, addend: 0x0, symName: __ZN10rayon_core8registry8Registry15in_worker_cross17hdc4a6da395130bf8E, symObjAddr: 0x91CC, symBinAddr: 0xA96DC, symSize: 0x108 }
  - { offset: 0x15A2BE, size: 0x8, addend: 0x0, symName: __ZN10rayon_core8registry8Registry15in_worker_cross17hde5fdca84a790e07E, symObjAddr: 0x92D4, symBinAddr: 0xA97E4, symSize: 0x108 }
  - { offset: 0x15A52F, size: 0x8, addend: 0x0, symName: __ZN10rayon_core8registry8Registry15in_worker_cross17hebd729bfd5a5d37aE, symObjAddr: 0x93DC, symBinAddr: 0xA98EC, symSize: 0x110 }
  - { offset: 0x15A7C5, size: 0x8, addend: 0x0, symName: __ZN10rayon_core8registry8Registry15in_worker_cross17hef139b4d3a0c84b5E, symObjAddr: 0x94EC, symBinAddr: 0xA99FC, symSize: 0xE0 }
  - { offset: 0x15AA44, size: 0x8, addend: 0x0, symName: __ZN10rayon_core8registry8Registry15in_worker_cross17hf2d9e34ec66d31d5E, symObjAddr: 0x95CC, symBinAddr: 0xA9ADC, symSize: 0xD8 }
  - { offset: 0x15ACD0, size: 0x8, addend: 0x0, symName: __ZN10rayon_core8registry8Registry15in_worker_cross17hfbc025f848df7e77E, symObjAddr: 0x96A4, symBinAddr: 0xA9BB4, symSize: 0x108 }
  - { offset: 0x15CE42, size: 0x8, addend: 0x0, symName: '__ZN10serde_json2de21Deserializer$LT$R$GT$10peek_error17h5fae0d73f19eb68dE', symObjAddr: 0xD1CC, symBinAddr: 0xA9DCC, symSize: 0x60 }
  - { offset: 0x15CF1A, size: 0x8, addend: 0x0, symName: '__ZN10serde_json2de21Deserializer$LT$R$GT$10peek_error17hf94db570a2575516E', symObjAddr: 0xD22C, symBinAddr: 0xA9E2C, symSize: 0x60 }
  - { offset: 0x15D1B4, size: 0x8, addend: 0x0, symName: '__ZN10serde_json2de21Deserializer$LT$R$GT$12parse_number17h6a8b93a961a5f890E', symObjAddr: 0xD28C, symBinAddr: 0xA344, symSize: 0x2AC }
  - { offset: 0x15D6B8, size: 0x8, addend: 0x0, symName: '__ZN10serde_json2de21Deserializer$LT$R$GT$13parse_decimal17h16aa9be5caec84feE', symObjAddr: 0xD538, symBinAddr: 0xA5F0, symSize: 0x1D8 }
  - { offset: 0x15DA48, size: 0x8, addend: 0x0, symName: '__ZN10serde_json2de21Deserializer$LT$R$GT$13parse_integer17h3ed13b207f8986cdE', symObjAddr: 0xD710, symBinAddr: 0xA7C8, symSize: 0x248 }
  - { offset: 0x15DCEB, size: 0x8, addend: 0x0, symName: '__ZN10serde_json2de21Deserializer$LT$R$GT$13parse_integer17he4ca0e28b386da2dE', symObjAddr: 0xD958, symBinAddr: 0xAA10, symSize: 0x178 }
  - { offset: 0x15E0CD, size: 0x8, addend: 0x0, symName: '__ZN10serde_json2de21Deserializer$LT$R$GT$14ignore_integer17h117388df331db514E', symObjAddr: 0xDAD0, symBinAddr: 0xAB88, symSize: 0x244 }
  - { offset: 0x15EA05, size: 0x8, addend: 0x0, symName: '__ZN10serde_json2de21Deserializer$LT$R$GT$14ignore_integer17he0c565c6dba335c9E', symObjAddr: 0xDD14, symBinAddr: 0xADCC, symSize: 0x244 }
  - { offset: 0x15EFD0, size: 0x8, addend: 0x0, symName: '__ZN10serde_json2de21Deserializer$LT$R$GT$14parse_exponent17h44c30cc72b0cf798E', symObjAddr: 0xDF58, symBinAddr: 0xB010, symSize: 0x240 }
  - { offset: 0x15F3F3, size: 0x8, addend: 0x0, symName: '__ZN10serde_json2de21Deserializer$LT$R$GT$14parse_exponent17hb21ff0e7e13d25a1E', symObjAddr: 0xE198, symBinAddr: 0xB250, symSize: 0x240 }
  - { offset: 0x15F959, size: 0x8, addend: 0x0, symName: '__ZN10serde_json2de21Deserializer$LT$R$GT$17peek_invalid_type17h6747aaa01cacdda7E', symObjAddr: 0xE3D8, symBinAddr: 0xA9E8C, symSize: 0x330 }
  - { offset: 0x15FEC9, size: 0x8, addend: 0x0, symName: '__ZN10serde_json2de21Deserializer$LT$R$GT$17peek_invalid_type17h9b15985447f13603E', symObjAddr: 0xE708, symBinAddr: 0xAA1BC, symSize: 0x330 }
  - { offset: 0x1602F8, size: 0x8, addend: 0x0, symName: '__ZN10serde_json2de21Deserializer$LT$R$GT$18parse_long_integer17heaff1fa216fe7445E', symObjAddr: 0xEA38, symBinAddr: 0xAA4EC, symSize: 0x178 }
  - { offset: 0x1604AD, size: 0x8, addend: 0x0, symName: '__ZN10serde_json2de21Deserializer$LT$R$GT$22parse_decimal_overflow17h1f68192534e9bb03E', symObjAddr: 0xEBB0, symBinAddr: 0xAA664, symSize: 0x148 }
  - { offset: 0x16067B, size: 0x8, addend: 0x0, symName: '__ZN10serde_json2de21Deserializer$LT$R$GT$23parse_exponent_overflow17h7cfdd8ecf928b0e6E', symObjAddr: 0xECF8, symBinAddr: 0xAA7AC, symSize: 0xA4 }
  - { offset: 0x160750, size: 0x8, addend: 0x0, symName: '__ZN10serde_json2de21Deserializer$LT$R$GT$5error17h10df092226e4bf0dE', symObjAddr: 0xED9C, symBinAddr: 0xAA850, symSize: 0x58 }
  - { offset: 0x1607C8, size: 0x8, addend: 0x0, symName: '__ZN10serde_json2de21Deserializer$LT$R$GT$5error17h50397110ae633029E', symObjAddr: 0xEDF4, symBinAddr: 0xAA8A8, symSize: 0x58 }
  - { offset: 0x16087B, size: 0x8, addend: 0x0, symName: '__ZN10serde_json2de21Deserializer$LT$R$GT$7end_map17h038cbdaa0aed2548E', symObjAddr: 0xEE4C, symBinAddr: 0xB490, symSize: 0xA4 }
  - { offset: 0x1609C6, size: 0x8, addend: 0x0, symName: '__ZN10serde_json2de21Deserializer$LT$R$GT$7end_map17hf21bf7a6fe39bc1aE', symObjAddr: 0xEEF0, symBinAddr: 0xB534, symSize: 0xA4 }
  - { offset: 0x160ABC, size: 0x8, addend: 0x0, symName: '__ZN10serde_json2de21Deserializer$LT$R$GT$7end_seq17hb893df8acf1f1685E', symObjAddr: 0xEF94, symBinAddr: 0xB5D8, symSize: 0xF4 }
  - { offset: 0x160D06, size: 0x8, addend: 0x0, symName: '__ZN10serde_json2de21Deserializer$LT$R$GT$7end_seq17he83afe7ba7e0b067E', symObjAddr: 0xF088, symBinAddr: 0xB6CC, symSize: 0xF4 }
  - { offset: 0x1614D9, size: 0x8, addend: 0x0, symName: __ZN10serde_json5error5Error12fix_position17h522d2ce167408f34E, symObjAddr: 0x10540, symBinAddr: 0xAA900, symSize: 0x60 }
  - { offset: 0x161662, size: 0x8, addend: 0x0, symName: __ZN10serde_json5error5Error12fix_position17h8891fa1035d0abefE, symObjAddr: 0x105A0, symBinAddr: 0xAA960, symSize: 0x60 }
  - { offset: 0x161F35, size: 0x8, addend: 0x0, symName: '__ZN15crossbeam_deque5deque15Worker$LT$T$GT$6resize17hfd61d7a651fd3241E', symObjAddr: 0x10900, symBinAddr: 0xAA9C0, symSize: 0x1E0 }
  - { offset: 0x163052, size: 0x8, addend: 0x0, symName: '__ZN3std3sys12thread_local6native4lazy20Storage$LT$T$C$D$GT$16get_or_init_slow17h1e157dbc8c283155E', symObjAddr: 0x1163C, symBinAddr: 0xAABA0, symSize: 0xC8 }
  - { offset: 0x1635B4, size: 0x8, addend: 0x0, symName: '__ZN3std3sys12thread_local6native4lazy20Storage$LT$T$C$D$GT$16get_or_init_slow17h367f7a97be3725f9E', symObjAddr: 0x11704, symBinAddr: 0xAAC68, symSize: 0x104 }
  - { offset: 0x16419E, size: 0x8, addend: 0x0, symName: '__ZN3std4sync9once_lock17OnceLock$LT$T$GT$10initialize17h0b59a2b9559b89c7E', symObjAddr: 0x11DCC, symBinAddr: 0xAAD6C, symSize: 0x40 }
  - { offset: 0x164217, size: 0x8, addend: 0x0, symName: '__ZN3std4sync9once_lock17OnceLock$LT$T$GT$10initialize17h0b59a2b9559b89c7E', symObjAddr: 0x11DCC, symBinAddr: 0xAAD6C, symSize: 0x40 }
  - { offset: 0x164234, size: 0x8, addend: 0x0, symName: '__ZN3std4sync9once_lock17OnceLock$LT$T$GT$10initialize17h0b59a2b9559b89c7E', symObjAddr: 0x11DCC, symBinAddr: 0xAAD6C, symSize: 0x40 }
  - { offset: 0x164257, size: 0x8, addend: 0x0, symName: '__ZN3std4sync9once_lock17OnceLock$LT$T$GT$10initialize17h0b59a2b9559b89c7E', symObjAddr: 0x11DCC, symBinAddr: 0xAAD6C, symSize: 0x40 }
  - { offset: 0x168626, size: 0x8, addend: 0x0, symName: '__ZN4pyo312pyclass_init27PyClassInitializer$LT$T$GT$19create_class_object17h7ca3fdd81e1d67ccE', symObjAddr: 0x1EF08, symBinAddr: 0x1B0A0, symSize: 0x1D4 }
  - { offset: 0x168AC2, size: 0x8, addend: 0x0, symName: '__ZN4pyo312pyclass_init27PyClassInitializer$LT$T$GT$27create_class_object_of_type17he57a5abaa5b85983E', symObjAddr: 0x1F0DC, symBinAddr: 0x1B274, symSize: 0x22C }
  - { offset: 0x169D40, size: 0x8, addend: 0x0, symName: __ZN4pyo35impl_16extract_argument19FunctionDescription26extract_arguments_fastcall17hcd76ffbdfe31126bE, symObjAddr: 0x1F7D4, symBinAddr: 0x1B96C, symSize: 0x8B8 }
  - { offset: 0x16B361, size: 0x8, addend: 0x0, symName: __ZN4pyo35impl_16extract_argument19FunctionDescription28extract_arguments_tuple_dict17h9f9783a30cbe8613E, symObjAddr: 0x2008C, symBinAddr: 0x1C224, symSize: 0x628 }
  - { offset: 0x16D22D, size: 0x8, addend: 0x0, symName: '__ZN4pyo35impl_7pyclass16lazy_type_object23LazyTypeObject$LT$T$GT$8try_init17h086f8d8ca769fd4dE', symObjAddr: 0x2115C, symBinAddr: 0xAADAC, symSize: 0x54 }
  - { offset: 0x16D2CC, size: 0x8, addend: 0x0, symName: '__ZN4pyo35impl_7pyclass16lazy_type_object23LazyTypeObject$LT$T$GT$8try_init17h7c8bc67576377fc1E', symObjAddr: 0x211B0, symBinAddr: 0xAAE00, symSize: 0x54 }
  - { offset: 0x16D36C, size: 0x8, addend: 0x0, symName: '__ZN4pyo35impl_7pyclass16lazy_type_object23LazyTypeObject$LT$T$GT$8try_init17h7db938c2efeddb5bE', symObjAddr: 0x21204, symBinAddr: 0xAAE54, symSize: 0x54 }
  - { offset: 0x16D40C, size: 0x8, addend: 0x0, symName: '__ZN4pyo35impl_7pyclass16lazy_type_object23LazyTypeObject$LT$T$GT$8try_init17hdf09a42d251b5203E', symObjAddr: 0x21258, symBinAddr: 0xAAEA8, symSize: 0x54 }
  - { offset: 0x16D4AC, size: 0x8, addend: 0x0, symName: '__ZN4pyo35impl_7pyclass16lazy_type_object23LazyTypeObject$LT$T$GT$8try_init17hf27b251118b2d8c7E', symObjAddr: 0x212AC, symBinAddr: 0xAAEFC, symSize: 0x54 }
  - { offset: 0x16D603, size: 0x8, addend: 0x0, symName: __ZN4pyo35types6module8PyModule6import17haaa2cd2a924b87a2E, symObjAddr: 0x214C8, symBinAddr: 0x1D4BC, symSize: 0x168 }
  - { offset: 0x16D998, size: 0x8, addend: 0x0, symName: '__ZN54_$LT$$u5b$T$u5d$$u20$as$u20$rand..seq..SliceRandom$GT$7shuffle17ha09663170ac3a2f8E', symObjAddr: 0x21824, symBinAddr: 0x1D818, symSize: 0x17C }
  - { offset: 0x16F0F9, size: 0x8, addend: 0x0, symName: '__ZN5alloc11collections9vec_deque21VecDeque$LT$T$C$A$GT$4grow17h2c103268261ed52eE', symObjAddr: 0x219A0, symBinAddr: 0x1D994, symSize: 0x94 }
  - { offset: 0x16F664, size: 0x8, addend: 0x0, symName: '__ZN5alloc11collections9vec_deque21VecDeque$LT$T$C$A$GT$4grow17h396712c57dc0a36bE', symObjAddr: 0x21A34, symBinAddr: 0x1DA28, symSize: 0x94 }
  - { offset: 0x16FB9B, size: 0x8, addend: 0x0, symName: '__ZN5alloc11collections9vec_deque21VecDeque$LT$T$C$A$GT$4grow17h3e9a9155fe231225E', symObjAddr: 0x21AC8, symBinAddr: 0x1DABC, symSize: 0x9C }
  - { offset: 0x1700DF, size: 0x8, addend: 0x0, symName: '__ZN5alloc11collections9vec_deque21VecDeque$LT$T$C$A$GT$4grow17hb035452641404d78E', symObjAddr: 0x21B64, symBinAddr: 0x1DB58, symSize: 0x84 }
  - { offset: 0x171485, size: 0x8, addend: 0x0, symName: '__ZN5alloc4sync16Arc$LT$T$C$A$GT$9drop_slow17h0a84e709b9686156E', symObjAddr: 0x22260, symBinAddr: 0x1E254, symSize: 0x64 }
  - { offset: 0x171862, size: 0x8, addend: 0x0, symName: '__ZN5alloc7raw_vec19RawVec$LT$T$C$A$GT$8grow_one17h14ca510d49c339abE', symObjAddr: 0x222C4, symBinAddr: 0x1E2B8, symSize: 0xB0 }
  - { offset: 0x171B69, size: 0x8, addend: 0x0, symName: '__ZN5alloc7raw_vec19RawVec$LT$T$C$A$GT$8grow_one17h1ed8e6e4887b553fE', symObjAddr: 0x22374, symBinAddr: 0x1E368, symSize: 0xB0 }
  - { offset: 0x171E33, size: 0x8, addend: 0x0, symName: '__ZN5alloc7raw_vec19RawVec$LT$T$C$A$GT$8grow_one17h3b7def41496503e2E', symObjAddr: 0x22424, symBinAddr: 0x1E418, symSize: 0xB4 }
  - { offset: 0x1720CF, size: 0x8, addend: 0x0, symName: '__ZN5alloc7raw_vec19RawVec$LT$T$C$A$GT$8grow_one17h3c990d60eb1b0a3eE', symObjAddr: 0x224D8, symBinAddr: 0x1E4CC, symSize: 0xB8 }
  - { offset: 0x17236B, size: 0x8, addend: 0x0, symName: '__ZN5alloc7raw_vec19RawVec$LT$T$C$A$GT$8grow_one17h58e28150a0129c7eE', symObjAddr: 0x22590, symBinAddr: 0x1E584, symSize: 0xB8 }
  - { offset: 0x172607, size: 0x8, addend: 0x0, symName: '__ZN5alloc7raw_vec19RawVec$LT$T$C$A$GT$8grow_one17h71571a77ce813a7fE', symObjAddr: 0x22648, symBinAddr: 0x1E63C, symSize: 0xC0 }
  - { offset: 0x1728A5, size: 0x8, addend: 0x0, symName: '__ZN5alloc7raw_vec19RawVec$LT$T$C$A$GT$8grow_one17heac0e921a016f886E', symObjAddr: 0x22708, symBinAddr: 0x1E6FC, symSize: 0xB4 }
  - { offset: 0x172B41, size: 0x8, addend: 0x0, symName: '__ZN5alloc7raw_vec19RawVec$LT$T$C$A$GT$8grow_one17hfb45cb9b4bde4b5bE', symObjAddr: 0x227BC, symBinAddr: 0x1E7B0, symSize: 0xB4 }
  - { offset: 0x172FD8, size: 0x8, addend: 0x0, symName: '__ZN5numpy5array20PyArray$LT$T$C$D$GT$14from_raw_parts17hb69996aa6918b358E', symObjAddr: 0x22968, symBinAddr: 0x1E864, symSize: 0x298 }
  - { offset: 0x173791, size: 0x8, addend: 0x0, symName: '__ZN5numpy5array20PyArray$LT$T$C$D$GT$16from_owned_array17hfe9ad0eb1f6fba43E', symObjAddr: 0x22C00, symBinAddr: 0x1EAFC, symSize: 0x308 }
  - { offset: 0x178918, size: 0x8, addend: 0x0, symName: '__ZN7ndarray12impl_methods48_$LT$impl$u20$ndarray..ArrayRef$LT$A$C$D$GT$$GT$8to_owned17h2ac6014d8d22f0b7E', symObjAddr: 0x29C24, symBinAddr: 0x258A0, symSize: 0x550 }
  - { offset: 0x17A375, size: 0x8, addend: 0x0, symName: '__ZN7ndarray17impl_constructors53_$LT$impl$u20$ndarray..ArrayBase$LT$S$C$D$C$A$GT$$GT$5zeros17h1d1b709821bb3787E', symObjAddr: 0x2A174, symBinAddr: 0x25DF0, symSize: 0x140 }
  - { offset: 0x17ADF0, size: 0x8, addend: 0x0, symName: __ZN7pkboost10metabolism17FeatureMetabolism17get_dead_features17hfe3256a5c4fca352E, symObjAddr: 0x2A2B4, symBinAddr: 0x25F30, symSize: 0x13C }
  - { offset: 0x17C029, size: 0x8, addend: 0x0, symName: __ZN7pkboost10multiclass17MultiClassPKBoost13predict_proba17h0be0eea79a99d3e5E, symObjAddr: 0x2A3F0, symBinAddr: 0x2606C, symSize: 0x934 }
  - { offset: 0x17F123, size: 0x8, addend: 0x0, symName: __ZN7pkboost10regression16PKBoostRegressor3fit17h9f53929dd4756028E, symObjAddr: 0x2AD24, symBinAddr: 0x269A0, symSize: 0x213C }
  - { offset: 0x1884EB, size: 0x8, addend: 0x0, symName: __ZN7pkboost14living_booster24AdversarialLivingBooster21add_incremental_trees17h2f1f3df4230baac4E, symObjAddr: 0x2D000, symBinAddr: 0x28C7C, symSize: 0x151C }
  - { offset: 0x18E028, size: 0x8, addend: 0x0, symName: __ZN7pkboost14optimized_data14TransposedData11from_binned17h2eaae83722c59304E, symObjAddr: 0x2E51C, symBinAddr: 0x2A198, symSize: 0x1B4 }
  - { offset: 0x18E9BC, size: 0x8, addend: 0x0, symName: __ZN7pkboost14optimized_data14TransposedData16from_binned_view17h23ead61ff84413d1E, symObjAddr: 0x2E6D0, symBinAddr: 0x2A34C, symSize: 0x160 }
  - { offset: 0x18F506, size: 0x8, addend: 0x0, symName: __ZN7pkboost14optimized_data15CachedHistogram16build_vectorized17h6fabe060cdc7c643E, symObjAddr: 0x2E830, symBinAddr: 0x2A4AC, symSize: 0x624 }
  - { offset: 0x1908AB, size: 0x8, addend: 0x0, symName: __ZN7pkboost14optimized_data15CachedHistogram8subtract17h8bb696988d289134E, symObjAddr: 0x2EE54, symBinAddr: 0x2AAD0, symSize: 0x834 }
  - { offset: 0x191980, size: 0x8, addend: 0x0, symName: __ZN7pkboost15python_bindings15PKBoostAdaptive20__pymethod___new____17h4d4575c7a56f930dE, symObjAddr: 0x2F688, symBinAddr: 0x2B304, symSize: 0x174 }
  - { offset: 0x192522, size: 0x8, addend: 0x0, symName: __ZN7pkboost15python_bindings15PKBoostAdaptive20__pymethod_predict__17hfd43f369840d2007E, symObjAddr: 0x2F7FC, symBinAddr: 0x2B478, symSize: 0x7F8 }
  - { offset: 0x1943EF, size: 0x8, addend: 0x0, symName: __ZN7pkboost15python_bindings15PKBoostAdaptive22__pymethod_get_state__17h4175b3d298caacb0E, symObjAddr: 0x2FFF4, symBinAddr: 0x2BC70, symSize: 0x268 }
  - { offset: 0x1961BD, size: 0x8, addend: 0x0, symName: __ZN7pkboost15python_bindings15PKBoostAdaptive24__pymethod_fit_initial__17h8bc41d23a94aa2f8E, symObjAddr: 0x3025C, symBinAddr: 0x2BED8, symSize: 0x1974 }
  - { offset: 0x199EA0, size: 0x8, addend: 0x0, symName: __ZN7pkboost15python_bindings15PKBoostAdaptive26__pymethod_get_is_fitted__17h67fd80b7ecb01c15E, symObjAddr: 0x31BD0, symBinAddr: 0x2D84C, symSize: 0xD0 }
  - { offset: 0x19C61C, size: 0x8, addend: 0x0, symName: __ZN7pkboost15python_bindings15PKBoostAdaptive26__pymethod_observe_batch__17h9ad85a86e47eab70E, symObjAddr: 0x31CA0, symBinAddr: 0x2D91C, symSize: 0x29E4 }
  - { offset: 0x1A5F5B, size: 0x8, addend: 0x0, symName: __ZN7pkboost15python_bindings15PKBoostAdaptive26__pymethod_predict_proba__17h2275a7cbed7d133aE, symObjAddr: 0x34684, symBinAddr: 0x30300, symSize: 0x4F8 }
  - { offset: 0x1A6F78, size: 0x8, addend: 0x0, symName: __ZN7pkboost15python_bindings15PKBoostAdaptive36__pymethod_get_metamorphosis_count__17h158e978520ff6c5fE, symObjAddr: 0x34B7C, symBinAddr: 0x307F8, symSize: 0x140 }
  - { offset: 0x1A762A, size: 0x8, addend: 0x0, symName: __ZN7pkboost15python_bindings15PKBoostAdaptive36__pymethod_get_vulnerability_score__17hcc69e3013ec97a2bE, symObjAddr: 0x34CBC, symBinAddr: 0x30938, symSize: 0x144 }
  - { offset: 0x1A81CC, size: 0x8, addend: 0x0, symName: __ZN7pkboost15python_bindings17PKBoostClassifier16__pymethod_fit__17hfffacea5bbe1a11dE, symObjAddr: 0x34E00, symBinAddr: 0x30A7C, symSize: 0xD1C }
  - { offset: 0x1AA3BC, size: 0x8, addend: 0x0, symName: __ZN7pkboost15python_bindings17PKBoostClassifier17__pymethod_auto__17h86c97f5b1b71f41eE, symObjAddr: 0x35B1C, symBinAddr: 0x31798, symSize: 0x8C }
  - { offset: 0x1AA817, size: 0x8, addend: 0x0, symName: __ZN7pkboost15python_bindings17PKBoostClassifier17__pymethod_load__17hbcf149a79513fac1E, symObjAddr: 0x35BA8, symBinAddr: 0x31824, symSize: 0x4A0 }
  - { offset: 0x1ABBE5, size: 0x8, addend: 0x0, symName: __ZN7pkboost15python_bindings17PKBoostClassifier17__pymethod_save__17h8c16dd1d2a2b9c84E, symObjAddr: 0x36048, symBinAddr: 0x31CC4, symSize: 0x498 }
  - { offset: 0x1ACFEE, size: 0x8, addend: 0x0, symName: __ZN7pkboost15python_bindings17PKBoostClassifier20__pymethod___new____17hb18e6c4caac8ba6bE, symObjAddr: 0x364E0, symBinAddr: 0x3215C, symSize: 0x9D8 }
  - { offset: 0x1AEDE8, size: 0x8, addend: 0x0, symName: __ZN7pkboost15python_bindings17PKBoostClassifier20__pymethod_predict__17h068e8f6f93bed333E, symObjAddr: 0x36EB8, symBinAddr: 0x32B34, symSize: 0x7FC }
  - { offset: 0x1B0CFD, size: 0x8, addend: 0x0, symName: __ZN7pkboost15python_bindings17PKBoostClassifier20__pymethod_to_json__17h76e29180447a8720E, symObjAddr: 0x376B4, symBinAddr: 0x33330, symSize: 0x294 }
  - { offset: 0x1B1B6B, size: 0x8, addend: 0x0, symName: __ZN7pkboost15python_bindings17PKBoostClassifier21__pymethod_to_bytes__17ha39004953d5f0eceE, symObjAddr: 0x37948, symBinAddr: 0x335C4, symSize: 0x290 }
  - { offset: 0x1B2A5C, size: 0x8, addend: 0x0, symName: __ZN7pkboost15python_bindings17PKBoostClassifier22__pymethod_from_json__17hcd3dd0e4cac30f17E, symObjAddr: 0x37BD8, symBinAddr: 0x33854, symSize: 0x2788 }
  - { offset: 0x1B6D7E, size: 0x8, addend: 0x0, symName: __ZN7pkboost15python_bindings17PKBoostClassifier23__pymethod_from_bytes__17h1bd5d405e433aae3E, symObjAddr: 0x3A360, symBinAddr: 0x35FDC, symSize: 0x374 }
  - { offset: 0x1B79EA, size: 0x8, addend: 0x0, symName: __ZN7pkboost15python_bindings17PKBoostClassifier24__pymethod_get_n_trees__17hac2f389961ba235fE, symObjAddr: 0x3A6D4, symBinAddr: 0x36350, symSize: 0x14C }
  - { offset: 0x1B7F7B, size: 0x8, addend: 0x0, symName: __ZN7pkboost15python_bindings17PKBoostClassifier26__pymethod_get_is_fitted__17h9734f69b21c7b0a3E, symObjAddr: 0x3A820, symBinAddr: 0x3649C, symSize: 0xD0 }
  - { offset: 0x1B85B8, size: 0x8, addend: 0x0, symName: __ZN7pkboost15python_bindings17PKBoostClassifier26__pymethod_predict_proba__17hb69fa8ecd4be46dfE, symObjAddr: 0x3A8F0, symBinAddr: 0x3656C, symSize: 0x504 }
  - { offset: 0x1B95F2, size: 0x8, addend: 0x0, symName: __ZN7pkboost15python_bindings17PKBoostClassifier27__pymethod_get_base_score__17hdef473f756dcbd8aE, symObjAddr: 0x3ADF4, symBinAddr: 0x36A70, symSize: 0x148 }
  - { offset: 0x1BA230, size: 0x8, addend: 0x0, symName: __ZN7pkboost15python_bindings17PKBoostClassifier34__pymethod_predict_contributions__17h34fb39bdad283693E, symObjAddr: 0x3AF3C, symBinAddr: 0x36BB8, symSize: 0xFE4 }
  - { offset: 0x1BD197, size: 0x8, addend: 0x0, symName: __ZN7pkboost15python_bindings17PKBoostClassifier35__pymethod_get_feature_importance__17ha2208a48aa6c5801E, symObjAddr: 0x3BF20, symBinAddr: 0x37B9C, symSize: 0x320 }
  - { offset: 0x1BE746, size: 0x8, addend: 0x0, symName: __ZN7pkboost15python_bindings18PKBoostRegressorPy16__pymethod_fit__17he89d7ca6d941c94cE, symObjAddr: 0x3C350, symBinAddr: 0x37FCC, symSize: 0x14C8 }
  - { offset: 0x1C223E, size: 0x8, addend: 0x0, symName: __ZN7pkboost15python_bindings18PKBoostRegressorPy17__pymethod_auto__17h45c0ccbec4ffdfdeE, symObjAddr: 0x3D818, symBinAddr: 0x39494, symSize: 0xFC }
  - { offset: 0x1C2554, size: 0x8, addend: 0x0, symName: __ZN7pkboost15python_bindings18PKBoostRegressorPy20__pymethod___new____17hc93f395d5e70f9e1E, symObjAddr: 0x3D914, symBinAddr: 0x39590, symSize: 0xE4 }
  - { offset: 0x1C29DB, size: 0x8, addend: 0x0, symName: __ZN7pkboost15python_bindings18PKBoostRegressorPy20__pymethod_predict__17h3762ccc379a66224E, symObjAddr: 0x3D9F8, symBinAddr: 0x39674, symSize: 0x7AC }
  - { offset: 0x1C4DF7, size: 0x8, addend: 0x0, symName: __ZN7pkboost15python_bindings18PKBoostRegressorPy26__pymethod_get_is_fitted__17h5d594b7af9fe568fE, symObjAddr: 0x3E1A4, symBinAddr: 0x39E20, symSize: 0xD0 }
  - { offset: 0x1C618A, size: 0x8, addend: 0x0, symName: __ZN7pkboost15python_bindings19PKBoostMultiClassPy16__pymethod_fit__17h9edfb5c84956aa06E, symObjAddr: 0x3EB0C, symBinAddr: 0x3A788, symSize: 0x11A4 }
  - { offset: 0x1CA3E7, size: 0x8, addend: 0x0, symName: __ZN7pkboost15python_bindings19PKBoostMultiClassPy20__pymethod___new____17h3cd00a2984ee9723E, symObjAddr: 0x3FCB0, symBinAddr: 0x3B92C, symSize: 0x23C }
  - { offset: 0x1CB074, size: 0x8, addend: 0x0, symName: __ZN7pkboost15python_bindings19PKBoostMultiClassPy20__pymethod_predict__17h87a3f9a72132b284E, symObjAddr: 0x3FEEC, symBinAddr: 0x3BB68, symSize: 0xA50 }
  - { offset: 0x1CD2E4, size: 0x8, addend: 0x0, symName: __ZN7pkboost15python_bindings19PKBoostMultiClassPy26__pymethod_get_is_fitted__17hd8021dcf21c8ad32E, symObjAddr: 0x4093C, symBinAddr: 0x3C5B8, symSize: 0xD0 }
  - { offset: 0x1CD92B, size: 0x8, addend: 0x0, symName: __ZN7pkboost15python_bindings19PKBoostMultiClassPy26__pymethod_predict_proba__17ha7c2ebe9b4a505a7E, symObjAddr: 0x40A0C, symBinAddr: 0x3C688, symSize: 0x4C0 }
  - { offset: 0x1CEDA0, size: 0x8, addend: 0x0, symName: __ZN7pkboost17histogram_builder25OptimizedHistogramBuilder3fit17h471bdb0945e1f1bcE, symObjAddr: 0x41A94, symBinAddr: 0x3D710, symSize: 0x378 }
  - { offset: 0x1D00B2, size: 0x8, addend: 0x0, symName: __ZN7pkboost17histogram_builder25OptimizedHistogramBuilder9transform17h2ad12bc0ab070b80E, symObjAddr: 0x41E0C, symBinAddr: 0x3DA88, symSize: 0x1EC }
  - { offset: 0x1D0F50, size: 0x8, addend: 0x0, symName: __ZN7pkboost4loss11PoissonLoss16gradient_hessian17hf599b3dd47911339E, symObjAddr: 0x41FF8, symBinAddr: 0x3DC74, symSize: 0x228 }
  - { offset: 0x1D1C1D, size: 0x8, addend: 0x0, symName: __ZN7pkboost4loss20OptimizedShannonLoss16gradient_hessian17h3d2ae664def626e5E, symObjAddr: 0x42220, symBinAddr: 0x3DE9C, symSize: 0x558 }
  - { offset: 0x1D3961, size: 0x8, addend: 0x0, symName: __ZN7pkboost4tree20OptimizedTreeShannon13fill_expected17h0d02ac9f3efb41f0E, symObjAddr: 0x42778, symBinAddr: 0x3E3F4, symSize: 0x1E4 }
  - { offset: 0x1D5402, size: 0x8, addend: 0x0, symName: __ZN7pkboost4tree20OptimizedTreeShannon13fit_optimized17hbe4c92ea76390129E, symObjAddr: 0x4295C, symBinAddr: 0x3E5D8, symSize: 0x1D4C }
  - { offset: 0x1DC90D, size: 0x8, addend: 0x0, symName: __ZN7pkboost4tree20OptimizedTreeShannon13predict_batch17h9ee513d7999e444cE, symObjAddr: 0x446A8, symBinAddr: 0x40324, symSize: 0x440 }
  - { offset: 0x1DD87A, size: 0x8, addend: 0x0, symName: __ZN7pkboost4tree20OptimizedTreeShannon3new17h4f5f0589f4767c34E, symObjAddr: 0x44AE8, symBinAddr: 0x40764, symSize: 0x330 }
  - { offset: 0x1DEEE0, size: 0x8, addend: 0x0, symName: __ZN7pkboost4tree9IndexPool7acquire17h16514f7c53780e7aE, symObjAddr: 0x45C58, symBinAddr: 0x418D4, symSize: 0x100 }
  - { offset: 0x1DF5ED, size: 0x8, addend: 0x0, symName: __ZN7pkboost5model23OptimizedPKBoostShannon13predict_proba17h5e4a29f9b45ad2d1E, symObjAddr: 0x45D58, symBinAddr: 0x419D4, symSize: 0x544 }
  - { offset: 0x1E1562, size: 0x8, addend: 0x0, symName: __ZN7pkboost5model23OptimizedPKBoostShannon17get_feature_usage17hf3de777e596a2735E, symObjAddr: 0x4629C, symBinAddr: 0x41F18, symSize: 0x2FC }
  - { offset: 0x1E2B73, size: 0x8, addend: 0x0, symName: __ZN7pkboost5model23OptimizedPKBoostShannon3fit17hf92ae5282f929c9eE, symObjAddr: 0x46598, symBinAddr: 0x42214, symSize: 0x2DF8 }
  - { offset: 0x1ED56A, size: 0x8, addend: 0x0, symName: __ZN7pkboost5model23OptimizedPKBoostShannon4auto17h2892d89048d80bf9E, symObjAddr: 0x49390, symBinAddr: 0x4500C, symSize: 0x13E4 }
  - { offset: 0x1EFFA1, size: 0x8, addend: 0x0, symName: __ZN7pkboost7metrics13AUCCalculator7prepare17hd767c3c10a4f8754E, symObjAddr: 0x4A774, symBinAddr: 0x463F0, symSize: 0x1DC }
  - { offset: 0x1F6B42, size: 0x8, addend: 0x0, symName: __ZN9hashbrown3raw13RawTableInner15rehash_in_place17h3c4adf0a7685dbc0E, symObjAddr: 0x5CAFC, symBinAddr: 0x58778, symSize: 0x234 }
  - { offset: 0x1F7E37, size: 0x8, addend: 0x0, symName: '__ZN9hashbrown3raw21RawTable$LT$T$C$A$GT$14reserve_rehash17h6b927a91822c3b9fE', symObjAddr: 0x5CD30, symBinAddr: 0xAB2C8, symSize: 0x2F0 }
  - { offset: 0x1F8F19, size: 0x8, addend: 0x0, symName: '__ZN9hashbrown3raw21RawTable$LT$T$C$A$GT$14reserve_rehash17he589f1f0dd41f845E', symObjAddr: 0x5D020, symBinAddr: 0xAB5B8, symSize: 0x2F0 }
  - { offset: 0x1FA17C, size: 0x8, addend: 0x0, symName: '__ZN9rand_core5block17BlockRng$LT$R$GT$16generate_and_set17hc427d2e68197fe98E', symObjAddr: 0x5D310, symBinAddr: 0x589AC, symSize: 0x1178 }
  - { offset: 0x201E54, size: 0x8, addend: 0x0, symName: _OUTLINED_FUNCTION_11, symObjAddr: 0xB61E4, symBinAddr: 0xA6480, symSize: 0xC }
  - { offset: 0x201E6C, size: 0x8, addend: 0x0, symName: _OUTLINED_FUNCTION_28, symObjAddr: 0xB62F4, symBinAddr: 0xA6590, symSize: 0x18 }
  - { offset: 0x201E84, size: 0x8, addend: 0x0, symName: _OUTLINED_FUNCTION_40, symObjAddr: 0xB6380, symBinAddr: 0xA661C, symSize: 0x8 }
  - { offset: 0x20E386, size: 0x8, addend: 0x0, symName: '__ZN5alloc7raw_vec19RawVec$LT$T$C$A$GT$8grow_one17h9c545e7c09f9d021E', symObjAddr: 0x6922C, symBinAddr: 0x63C68, symSize: 0xB8 }
  - { offset: 0x20F06F, size: 0x8, addend: 0x0, symName: '__ZN5alloc7raw_vec19RawVec$LT$T$C$A$GT$8grow_one17h9c545e7c09f9d021E', symObjAddr: 0x6922C, symBinAddr: 0x63C68, symSize: 0xB8 }
  - { offset: 0x202C0B, size: 0x8, addend: 0x0, symName: '__ZN131_$LT$crossbeam_epoch..internal..Local$u20$as$u20$crossbeam_epoch..sync..list..IsElement$LT$crossbeam_epoch..internal..Local$GT$$GT$8finalize17h66ccf94792137dc7E', symObjAddr: 0x681B0, symBinAddr: 0x630C0, symSize: 0x138 }
  - { offset: 0x202DBC, size: 0x8, addend: 0x0, symName: '__ZN71_$LT$crossbeam_epoch..guard..Guard$u20$as$u20$core..ops..drop..Drop$GT$4drop17hdd447d53be5cc763E', symObjAddr: 0x68F98, symBinAddr: 0x639D4, symSize: 0x30 }
  - { offset: 0x203200, size: 0x8, addend: 0x0, symName: '__ZN131_$LT$crossbeam_epoch..internal..Local$u20$as$u20$crossbeam_epoch..sync..list..IsElement$LT$crossbeam_epoch..internal..Local$GT$$GT$8finalize17h66ccf94792137dc7E', symObjAddr: 0x681B0, symBinAddr: 0x630C0, symSize: 0x138 }
  - { offset: 0x2046B8, size: 0x8, addend: 0x0, symName: '__ZN80_$LT$crossbeam_epoch..collector..Collector$u20$as$u20$core..default..Default$GT$7default17hd2147ca6d611dcd4E', symObjAddr: 0x689E8, symBinAddr: 0x63638, symSize: 0x130 }
  - { offset: 0x204BB4, size: 0x8, addend: 0x0, symName: __ZN15crossbeam_epoch8deferred8Deferred3new4call17h68ac95a87e037846E, symObjAddr: 0x682E8, symBinAddr: 0x631F8, symSize: 0xD4 }
  - { offset: 0x204FBC, size: 0x8, addend: 0x0, symName: __ZN15crossbeam_epoch8deferred8Deferred3new4call17he16e56ed763ff1c6E, symObjAddr: 0x688F0, symBinAddr: 0x635A8, symSize: 0x10 }
  - { offset: 0x204FE8, size: 0x8, addend: 0x0, symName: __ZN15crossbeam_epoch8deferred8Deferred3new4call17he16e56ed763ff1c6E, symObjAddr: 0x688F0, symBinAddr: 0x635A8, symSize: 0x10 }
  - { offset: 0x20515E, size: 0x8, addend: 0x0, symName: __ZN15crossbeam_epoch8deferred8Deferred5NO_OP10no_op_call17h3683ed60ddc67701E, symObjAddr: 0x6855C, symBinAddr: 0x6346C, symSize: 0x4 }
  - { offset: 0x2051A8, size: 0x8, addend: 0x0, symName: '__ZN15crossbeam_epoch7default6HANDLE29_$u7b$$u7b$constant$u7d$$u7d$28_$u7b$$u7b$closure$u7d$$u7d$3VAL17hc9ed49c43ab33e6cE', symObjAddr: 0xD7BD0, symBinAddr: 0xF92E0, symSize: 0x0 }
  - { offset: 0x2051CC, size: 0x8, addend: 0x0, symName: __ZN15crossbeam_epoch7default9collector9COLLECTOR17hcd4318b37e1c64ccE, symObjAddr: 0xD6DF8, symBinAddr: 0xF8500, symSize: 0x0 }
  - { offset: 0x2062D9, size: 0x8, addend: 0x0, symName: '__ZN4core3ptr100drop_in_place$LT$crossbeam_epoch..sync..queue..Queue$LT$crossbeam_epoch..internal..SealedBag$GT$$GT$17h9a6d2a4f918fe63cE', symObjAddr: 0x68B18, symBinAddr: 0x63768, symSize: 0x13C }
  - { offset: 0x206C49, size: 0x8, addend: 0x0, symName: '__ZN4core3ptr94drop_in_place$LT$crossbeam_epoch..sync..list..List$LT$crossbeam_epoch..internal..Local$GT$$GT$17hba09c7b42a7386d3E', symObjAddr: 0x68C54, symBinAddr: 0x638A4, symSize: 0x70 }
  - { offset: 0x206DF0, size: 0x8, addend: 0x0, symName: '__ZN4core3ptr54drop_in_place$LT$crossbeam_epoch..internal..Global$GT$17h64c4a46d5922a0dfE', symObjAddr: 0x68CC4, symBinAddr: 0x63914, symSize: 0x98 }
  - { offset: 0x20704E, size: 0x8, addend: 0x0, symName: '__ZN4core3ptr53drop_in_place$LT$crossbeam_epoch..internal..Local$GT$17hbf9db20051e00cc4E', symObjAddr: 0x69198, symBinAddr: 0x63BD4, symSize: 0x94 }
  - { offset: 0x2079E5, size: 0x8, addend: 0x0, symName: '__ZN4core3ops8function6FnOnce40call_once$u7b$$u7b$vtable.shim$u7d$$u7d$17h96f8cc03d0573dfeE', symObjAddr: 0x68968, symBinAddr: 0x635B8, symSize: 0x40 }
  - { offset: 0x208BC2, size: 0x8, addend: 0x0, symName: '__ZN3std4sync6poison4once4Once9call_once28_$u7b$$u7b$closure$u7d$$u7d$17h97ebf1480e08a63aE', symObjAddr: 0x689A8, symBinAddr: 0x635F8, symSize: 0x40 }
  - { offset: 0x2095D6, size: 0x8, addend: 0x0, symName: __ZN15crossbeam_epoch8internal5Local5defer17h3dd9a072a9376e0eE, symObjAddr: 0x683BC, symBinAddr: 0x632CC, symSize: 0x1A0 }
  - { offset: 0x209DEA, size: 0x8, addend: 0x0, symName: __ZN15crossbeam_epoch5guard5Guard5flush17h4297043a60ee1e68E, symObjAddr: 0x68560, symBinAddr: 0x63470, symSize: 0x138 }
  - { offset: 0x20A9D3, size: 0x8, addend: 0x0, symName: __ZN15crossbeam_epoch8internal6Global7collect17h0314a1752ab77907E, symObjAddr: 0x68698, symBinAddr: 0xAC034, symSize: 0x174 }
  - { offset: 0x20B66B, size: 0x8, addend: 0x0, symName: __ZN15crossbeam_epoch8internal6Global11try_advance17hca2bf3eadd080074E, symObjAddr: 0x6880C, symBinAddr: 0xAC1A8, symSize: 0xE4 }
  - { offset: 0x20BCF6, size: 0x8, addend: 0x0, symName: '__ZN15crossbeam_epoch4sync9once_lock17OnceLock$LT$T$GT$10initialize17h41eb543047194bcaE', symObjAddr: 0x68900, symBinAddr: 0xAC28C, symSize: 0x68 }
  - { offset: 0x20C842, size: 0x8, addend: 0x0, symName: __ZN15crossbeam_epoch8internal5Local8finalize17h3e84a2506368ae3aE, symObjAddr: 0x68D5C, symBinAddr: 0xAC2F4, symSize: 0x214 }
  - { offset: 0x20D71E, size: 0x8, addend: 0x0, symName: __ZN15crossbeam_epoch8internal5Local5unpin17h6c535ef2970d0ab0E, symObjAddr: 0x68F70, symBinAddr: 0x639AC, symSize: 0x28 }
  - { offset: 0x20D73C, size: 0x8, addend: 0x0, symName: __ZN15crossbeam_epoch8internal5Local5unpin17h6c535ef2970d0ab0E, symObjAddr: 0x68F70, symBinAddr: 0x639AC, symSize: 0x28 }
  - { offset: 0x20D91A, size: 0x8, addend: 0x0, symName: '__ZN5alloc4sync16Arc$LT$T$C$A$GT$9drop_slow17h3c1cb33b98ddc428E', symObjAddr: 0x68FC8, symBinAddr: 0x63A04, symSize: 0x90 }
  - { offset: 0x20DF19, size: 0x8, addend: 0x0, symName: __ZN15crossbeam_epoch9collector9Collector8register17h697c61c537ca3e03E, symObjAddr: 0x69058, symBinAddr: 0x63A94, symSize: 0x140 }
  - { offset: 0x2D72F5, size: 0x8, addend: 0x0, symName: '__ZN52_$LT$$RF$str$u20$as$u20$serde_core..de..Expected$GT$3fmt17ha61daaf10516ff60E', symObjAddr: 0x8AED4, symBinAddr: 0x7FCE0, symSize: 0x10 }
  - { offset: 0x2D742E, size: 0x8, addend: 0x0, symName: '__ZN52_$LT$$RF$str$u20$as$u20$serde_core..de..Expected$GT$3fmt17ha61daaf10516ff60E', symObjAddr: 0x8AED4, symBinAddr: 0x7FCE0, symSize: 0x10 }
  - { offset: 0x2D7869, size: 0x8, addend: 0x0, symName: '__ZN42_$LT$$RF$T$u20$as$u20$core..fmt..Debug$GT$3fmt17h4f47aef05b11ef3aE', symObjAddr: 0x8AEE4, symBinAddr: 0x7FCF0, symSize: 0x10 }
  - { offset: 0x211EEE, size: 0x8, addend: 0x0, symName: __ZN4pyo34sync9once_lock26init_once_cell_py_attached17hcceccf55a418c56aE, symObjAddr: 0x6A8A0, symBinAddr: 0xAC608, symSize: 0xA0 }
  - { offset: 0x212A2D, size: 0x8, addend: 0x0, symName: __ZN4pyo35types7capsule18capsule_destructor17he907a0246821529aE, symObjAddr: 0x6E948, symBinAddr: 0x67F08, symSize: 0x174 }
  - { offset: 0x213F54, size: 0x8, addend: 0x0, symName: __ZN4pyo34sync9once_lock26init_once_cell_py_attached17hcceccf55a418c56aE, symObjAddr: 0x6A8A0, symBinAddr: 0xAC608, symSize: 0xA0 }
  - { offset: 0x214353, size: 0x8, addend: 0x0, symName: __ZN4pyo34sync9once_lock30try_init_once_cell_py_attached17hdfcd55429d76c5b4E, symObjAddr: 0x6ABFC, symBinAddr: 0xAC764, symSize: 0xF0 }
  - { offset: 0x21474B, size: 0x8, addend: 0x0, symName: __ZN4pyo34sync9once_lock30try_init_once_cell_py_attached17h6b97abd95b31d331E, symObjAddr: 0x6B274, symBinAddr: 0xAC948, symSize: 0xE8 }
  - { offset: 0x214B3E, size: 0x8, addend: 0x0, symName: __ZN4pyo34sync9once_lock30try_init_once_cell_py_attached17h20864228f484d5a9E, symObjAddr: 0x6B738, symBinAddr: 0xACB24, symSize: 0xF0 }
  - { offset: 0x214F36, size: 0x8, addend: 0x0, symName: __ZN4pyo34sync9once_lock30try_init_once_cell_py_attached17hb5a4d1b7a78b3b74E, symObjAddr: 0x6C510, symBinAddr: 0xACD08, symSize: 0xF0 }
  - { offset: 0x215F76, size: 0x8, addend: 0x0, symName: '__ZN64_$LT$alloc..ffi..c_str..NulError$u20$as$u20$core..fmt..Debug$GT$3fmt17hb528bfe231df95daE', symObjAddr: 0x6EB5C, symBinAddr: 0x6811C, symSize: 0x48 }
  - { offset: 0x21790A, size: 0x8, addend: 0x0, symName: '__ZN4core3ptr133drop_in_place$LT$std..collections..hash..map..HashMap$LT$numpy..borrow..shared..BorrowKey$C$isize$C$rustc_hash..FxBuildHasher$GT$$GT$17hcdccdfbc376efac6E', symObjAddr: 0x6F7F4, symBinAddr: 0x688C4, symSize: 0x2C }
  - { offset: 0x217926, size: 0x8, addend: 0x0, symName: '__ZN4core3ptr133drop_in_place$LT$std..collections..hash..map..HashMap$LT$numpy..borrow..shared..BorrowKey$C$isize$C$rustc_hash..FxBuildHasher$GT$$GT$17hcdccdfbc376efac6E', symObjAddr: 0x6F7F4, symBinAddr: 0x688C4, symSize: 0x2C }
  - { offset: 0x21793B, size: 0x8, addend: 0x0, symName: '__ZN4core3ptr133drop_in_place$LT$std..collections..hash..map..HashMap$LT$numpy..borrow..shared..BorrowKey$C$isize$C$rustc_hash..FxBuildHasher$GT$$GT$17hcdccdfbc376efac6E', symObjAddr: 0x6F7F4, symBinAddr: 0x688C4, symSize: 0x2C }
  - { offset: 0x217950, size: 0x8, addend: 0x0, symName: '__ZN4core3ptr133drop_in_place$LT$std..collections..hash..map..HashMap$LT$numpy..borrow..shared..BorrowKey$C$isize$C$rustc_hash..FxBuildHasher$GT$$GT$17hcdccdfbc376efac6E', symObjAddr: 0x6F7F4, symBinAddr: 0x688C4, symSize: 0x2C }
  - { offset: 0x217965, size: 0x8, addend: 0x0, symName: '__ZN4core3ptr133drop_in_place$LT$std..collections..hash..map..HashMap$LT$numpy..borrow..shared..BorrowKey$C$isize$C$rustc_hash..FxBuildHasher$GT$$GT$17hcdccdfbc376efac6E', symObjAddr: 0x6F7F4, symBinAddr: 0x688C4, symSize: 0x2C }
  - { offset: 0x21A5E0, size: 0x8, addend: 0x0, symName: '__ZN44_$LT$$RF$T$u20$as$u20$core..fmt..Display$GT$3fmt17h17812ed5e2161fa7E', symObjAddr: 0x6B828, symBinAddr: 0x65B58, symSize: 0x10 }
  - { offset: 0x21A6DC, size: 0x8, addend: 0x0, symName: '__ZN42_$LT$$RF$T$u20$as$u20$core..fmt..Debug$GT$3fmt17h37b2893a812c9ca0E', symObjAddr: 0x6EBA4, symBinAddr: 0x68164, symSize: 0x70 }
  - { offset: 0x21A837, size: 0x8, addend: 0x0, symName: '__ZN4core3fmt3num52_$LT$impl$u20$core..fmt..Debug$u20$for$u20$usize$GT$3fmt17hecd777b1c3510085E.1967', symObjAddr: 0x6EC14, symBinAddr: 0x681D4, symSize: 0x18 }
  - { offset: 0x21A873, size: 0x8, addend: 0x0, symName: '__ZN4core3fmt3num52_$LT$impl$u20$core..fmt..Debug$u20$for$u20$usize$GT$3fmt17hecd777b1c3510085E.1967', symObjAddr: 0x6EC14, symBinAddr: 0x681D4, symSize: 0x18 }
  - { offset: 0x21CF4B, size: 0x8, addend: 0x0, symName: '__ZN4core3ops8function6FnOnce40call_once$u7b$$u7b$vtable.shim$u7d$$u7d$17hb0b49dda31d74896E', symObjAddr: 0x6A9FC, symBinAddr: 0x651DC, symSize: 0x100 }
  - { offset: 0x21D3B9, size: 0x8, addend: 0x0, symName: '__ZN4core3ops8function6FnOnce40call_once$u7b$$u7b$vtable.shim$u7d$$u7d$17h90bf43d25338a899E', symObjAddr: 0x6ADE0, symBinAddr: 0x653DC, symSize: 0x4 }
  - { offset: 0x21D3EC, size: 0x8, addend: 0x0, symName: '__ZN4core3ops8function6FnOnce40call_once$u7b$$u7b$vtable.shim$u7d$$u7d$17h90bf43d25338a899E', symObjAddr: 0x6ADE0, symBinAddr: 0x653DC, symSize: 0x4 }
  - { offset: 0x21D46F, size: 0x8, addend: 0x0, symName: '__ZN4core3ops8function6FnOnce40call_once$u7b$$u7b$vtable.shim$u7d$$u7d$17h7022fb60be83a8bcE', symObjAddr: 0x6B5B4, symBinAddr: 0x659D4, symSize: 0x4 }
  - { offset: 0x21D4A2, size: 0x8, addend: 0x0, symName: '__ZN4core3ops8function6FnOnce40call_once$u7b$$u7b$vtable.shim$u7d$$u7d$17h7022fb60be83a8bcE', symObjAddr: 0x6B5B4, symBinAddr: 0x659D4, symSize: 0x4 }
  - { offset: 0x21D502, size: 0x8, addend: 0x0, symName: '__ZN4core3ops8function6FnOnce40call_once$u7b$$u7b$vtable.shim$u7d$$u7d$17ha49350154f898d97E', symObjAddr: 0x6B92C, symBinAddr: 0x65B68, symSize: 0x4 }
  - { offset: 0x21D535, size: 0x8, addend: 0x0, symName: '__ZN4core3ops8function6FnOnce40call_once$u7b$$u7b$vtable.shim$u7d$$u7d$17ha49350154f898d97E', symObjAddr: 0x6B92C, symBinAddr: 0x65B68, symSize: 0x4 }
  - { offset: 0x21D595, size: 0x8, addend: 0x0, symName: '__ZN4core3ops8function6FnOnce40call_once$u7b$$u7b$vtable.shim$u7d$$u7d$17h9720057e6ce0e54aE', symObjAddr: 0x6C6F4, symBinAddr: 0xACEEC, symSize: 0x4 }
  - { offset: 0x21D5C8, size: 0x8, addend: 0x0, symName: '__ZN4core3ops8function6FnOnce40call_once$u7b$$u7b$vtable.shim$u7d$$u7d$17h9720057e6ce0e54aE', symObjAddr: 0x6C6F4, symBinAddr: 0xACEEC, symSize: 0x4 }
  - { offset: 0x21D5F4, size: 0x8, addend: 0x0, symName: '__ZN4core3ops8function6FnOnce40call_once$u7b$$u7b$vtable.shim$u7d$$u7d$17h28b925f5d3af6599E', symObjAddr: 0x6EABC, symBinAddr: 0x6807C, symSize: 0xA0 }
  - { offset: 0x21ECAD, size: 0x8, addend: 0x0, symName: __ZN5numpy6npyffi11API_VERSION17h63b68d681dbec3e3E, symObjAddr: 0xEDF958, symBinAddr: 0xF94A0, symSize: 0x0 }
  - { offset: 0x21ECCD, size: 0x8, addend: 0x0, symName: __MergedGlobals.2525, symObjAddr: 0xEDF9C0, symBinAddr: 0xF9508, symSize: 0x0 }
  - { offset: 0x21EE13, size: 0x8, addend: 0x0, symName: __ZN5numpy6npyffi5array15numpy_core_name8MOD_NAME17hd412b129f05b988fE, symObjAddr: 0xEDF968, symBinAddr: 0xF94B0, symSize: 0x0 }
  - { offset: 0x21EF75, size: 0x8, addend: 0x0, symName: __MergedGlobals, symObjAddr: 0xD7870, symBinAddr: 0xF8F78, symSize: 0x0 }
  - { offset: 0x21F1C6, size: 0x8, addend: 0x0, symName: __ZN5numpy6npyffi5array13PyArray_Check17h282426a84b3c752dE, symObjAddr: 0x700D0, symBinAddr: 0x68C90, symSize: 0xDC }
  - { offset: 0x21F607, size: 0x8, addend: 0x0, symName: __ZN5numpy6borrow6shared6SHARED17hc3fe1bacb8bce461E, symObjAddr: 0xEDF948, symBinAddr: 0xF9490, symSize: 0x0 }
  - { offset: 0x21F81E, size: 0x8, addend: 0x0, symName: __ZN5numpy6borrow6shared13insert_shared17hb9c734f0fa7d7d9aE, symObjAddr: 0x6C7F8, symBinAddr: 0xACFF0, symSize: 0x994 }
  - { offset: 0x221342, size: 0x8, addend: 0x0, symName: __ZN5numpy6borrow6shared14acquire_shared17h71c121cf60abf88cE, symObjAddr: 0x6D18C, symBinAddr: 0x6674C, symSize: 0x5C4 }
  - { offset: 0x223302, size: 0x8, addend: 0x0, symName: __ZN5numpy6borrow6shared18acquire_mut_shared17h12249cf5acedee2cE, symObjAddr: 0x6D750, symBinAddr: 0x66D10, symSize: 0x5C0 }
  - { offset: 0x2252C5, size: 0x8, addend: 0x0, symName: __ZN5numpy6borrow6shared14release_shared17h9d51eee0903c9fc1E, symObjAddr: 0x6DD10, symBinAddr: 0x672D0, symSize: 0x690 }
  - { offset: 0x227B1F, size: 0x8, addend: 0x0, symName: __ZN5numpy6borrow6shared18release_mut_shared17h4f99e0697886a74bE, symObjAddr: 0x6E3A0, symBinAddr: 0x67960, symSize: 0x5A8 }
  - { offset: 0x229F6B, size: 0x8, addend: 0x0, symName: __ZN5numpy6borrow6shared10borrow_key17h0ed3f6c74453e321E, symObjAddr: 0x6EC2C, symBinAddr: 0x681EC, symSize: 0x3A8 }
  - { offset: 0x22A689, size: 0x8, addend: 0x0, symName: __ZN5numpy6borrow6shared7acquire17hd0718074aa56e6d3E, symObjAddr: 0x6FD30, symBinAddr: 0x688F0, symSize: 0x128 }
  - { offset: 0x22A8C3, size: 0x8, addend: 0x0, symName: __ZN5numpy6borrow6shared7release17h867a8524edf1901eE, symObjAddr: 0x6FE58, symBinAddr: 0x68A18, symSize: 0xC8 }
  - { offset: 0x22AA9B, size: 0x8, addend: 0x0, symName: '__ZN94_$LT$numpy..slice_container..PySliceContainer$u20$as$u20$pyo3..impl_..pyclass..PyClassImpl$GT$10items_iter15INTRINSIC_ITEMS17h294b6a16352a604dE', symObjAddr: 0xC5B70, symBinAddr: 0xBED38, symSize: 0x0 }
  - { offset: 0x22AABC, size: 0x8, addend: 0x0, symName: '__ZN94_$LT$numpy..slice_container..PySliceContainer$u20$as$u20$pyo3..impl_..pyclass..PyClassImpl$GT$16lazy_type_object11TYPE_OBJECT17hc04cdc9bec5529b9E', symObjAddr: 0xD6E08, symBinAddr: 0xF8510, symSize: 0x0 }
  - { offset: 0x22EF3B, size: 0x8, addend: 0x0, symName: '__ZN9once_cell3imp17OnceCell$LT$T$GT$10initialize28_$u7b$$u7b$closure$u7d$$u7d$17he0b7dcf0d1b3ff2eE', symObjAddr: 0x6AAFC, symBinAddr: 0x652DC, symSize: 0x100 }
  - { offset: 0x22F332, size: 0x8, addend: 0x0, symName: '__ZN9once_cell3imp17OnceCell$LT$T$GT$10initialize28_$u7b$$u7b$closure$u7d$$u7d$17hcf299d4614ad0ee4E', symObjAddr: 0x6ADE4, symBinAddr: 0x653E0, symSize: 0x490 }
  - { offset: 0x22FF6D, size: 0x8, addend: 0x0, symName: '__ZN9once_cell3imp17OnceCell$LT$T$GT$10initialize28_$u7b$$u7b$closure$u7d$$u7d$17h489548d837f51aeeE', symObjAddr: 0x6B5B8, symBinAddr: 0x659D8, symSize: 0x180 }
  - { offset: 0x2304E6, size: 0x8, addend: 0x0, symName: '__ZN9once_cell3imp17OnceCell$LT$T$GT$10initialize28_$u7b$$u7b$closure$u7d$$u7d$17h30843e232b45582eE', symObjAddr: 0x6B930, symBinAddr: 0x65B6C, symSize: 0xA68 }
  - { offset: 0x23194F, size: 0x8, addend: 0x0, symName: '__ZN9once_cell3imp17OnceCell$LT$T$GT$10initialize28_$u7b$$u7b$closure$u7d$$u7d$17ha91573c0cc4dbf95E', symObjAddr: 0x6C6F8, symBinAddr: 0xACEF0, symSize: 0x100 }
  - { offset: 0x232830, size: 0x8, addend: 0x0, symName: '__ZN9once_cell3imp17OnceCell$LT$T$GT$10initialize17hc9108daea7c592b8E', symObjAddr: 0x6A940, symBinAddr: 0xAC6A8, symSize: 0xBC }
  - { offset: 0x232CA2, size: 0x8, addend: 0x0, symName: '__ZN9once_cell3imp17OnceCell$LT$T$GT$10initialize17h0488996e1eb34264E', symObjAddr: 0x6ACEC, symBinAddr: 0xAC854, symSize: 0xF4 }
  - { offset: 0x2335F3, size: 0x8, addend: 0x0, symName: __ZN4pyo35types6module8PyModule6import17h53d04b320a9e74fdE, symObjAddr: 0x6B35C, symBinAddr: 0x65870, symSize: 0x164 }
  - { offset: 0x23397E, size: 0x8, addend: 0x0, symName: '__ZN9once_cell3imp17OnceCell$LT$T$GT$10initialize17h82bebd159ab26803E', symObjAddr: 0x6B4C0, symBinAddr: 0xACA30, symSize: 0xF4 }
  - { offset: 0x2340E5, size: 0x8, addend: 0x0, symName: '__ZN9once_cell3imp17OnceCell$LT$T$GT$10initialize17h0e028f5da29b7662E', symObjAddr: 0x6B838, symBinAddr: 0xACC14, symSize: 0xF4 }
  - { offset: 0x234520, size: 0x8, addend: 0x0, symName: __ZN5numpy6npyffi5array10PyArrayAPI15get_type_object17hbb394e5006493e73E, symObjAddr: 0x6C398, symBinAddr: 0x665D4, symSize: 0xA8 }
  - { offset: 0x234748, size: 0x8, addend: 0x0, symName: __ZN5numpy5dtype12PyArrayDescr13from_npy_type17h49716cfbb8e16e5bE, symObjAddr: 0x6C440, symBinAddr: 0x6667C, symSize: 0xD0 }
  - { offset: 0x2349BB, size: 0x8, addend: 0x0, symName: '__ZN9once_cell3imp17OnceCell$LT$T$GT$10initialize17h1afe60bef7baa8e9E', symObjAddr: 0x6C600, symBinAddr: 0xACDF8, symSize: 0xF4 }
  - { offset: 0x2386D5, size: 0x8, addend: 0x0, symName: '__ZN9hashbrown3raw21RawTable$LT$T$C$A$GT$14reserve_rehash17h9432b88488e50ee8E', symObjAddr: 0x6EFD4, symBinAddr: 0xAD984, symSize: 0x4F0 }
  - { offset: 0x23A52B, size: 0x8, addend: 0x0, symName: __ZN5numpy6borrow6shared9BorrowKey9conflicts17h978aad8b9f817861E, symObjAddr: 0x6F4C4, symBinAddr: 0x68594, symSize: 0x138 }
  - { offset: 0x23ACB9, size: 0x8, addend: 0x0, symName: '__ZN9hashbrown3map28HashMap$LT$K$C$V$C$S$C$A$GT$6insert17h3653cea25930e525E', symObjAddr: 0x6F5FC, symBinAddr: 0x686CC, symSize: 0x1F8 }
  - { offset: 0x23B90D, size: 0x8, addend: 0x0, symName: '__ZN9hashbrown3raw21RawTable$LT$T$C$A$GT$14reserve_rehash17h63b5617866c6ddc4E', symObjAddr: 0x6F820, symBinAddr: 0xADE74, symSize: 0x510 }
  - { offset: 0x23DB9E, size: 0x8, addend: 0x0, symName: __ZN5numpy6npyffi5array10PyArrayAPI20PyArray_NewFromDescr17hdc2114c6859caafdE, symObjAddr: 0x6FF20, symBinAddr: 0x68AE0, symSize: 0xF4 }
  - { offset: 0x23DD43, size: 0x8, addend: 0x0, symName: __ZN5numpy6npyffi5array10PyArrayAPI21PyArray_SetBaseObject17h45fe5090580e4ed6E, symObjAddr: 0x70014, symBinAddr: 0x68BD4, symSize: 0xBC }
  - { offset: 0x2D598F, size: 0x8, addend: 0x0, symName: __ZN3ryu6pretty8format6417h0838b2e4a3e34d09E, symObjAddr: 0x8A418, symBinAddr: 0x7F224, symSize: 0x948 }
  - { offset: 0x2D59B4, size: 0x8, addend: 0x0, symName: __ZN3ryu11digit_table11DIGIT_TABLE17h45d091b4696f9514E, symObjAddr: 0xC677F, symBinAddr: 0xBF937, symSize: 0x0 }
  - { offset: 0x2D59D6, size: 0x8, addend: 0x0, symName: __ZN3ryu14d2s_full_table17DOUBLE_POW5_SPLIT17h8c8776f3880c8a9aE, symObjAddr: 0xC6848, symBinAddr: 0xBFA00, symSize: 0x0 }
  - { offset: 0x2D59F1, size: 0x8, addend: 0x0, symName: __ZN3ryu14d2s_full_table21DOUBLE_POW5_INV_SPLIT17hfd13f36c8c6a1a92E, symObjAddr: 0xC7CA8, symBinAddr: 0xC0E60, symSize: 0x0 }
  - { offset: 0x2D5F72, size: 0x8, addend: 0x0, symName: __ZN3ryu6pretty8format6417h0838b2e4a3e34d09E, symObjAddr: 0x8A418, symBinAddr: 0x7F224, symSize: 0x948 }
  - { offset: 0x2D6CB7, size: 0x8, addend: 0x0, symName: __ZN3ryu6pretty8mantissa19write_mantissa_long17h3c02c99bc354e6d8E, symObjAddr: 0x8AD60, symBinAddr: 0x7FB6C, symSize: 0x174 }
  - { offset: 0x2119EF, size: 0x8, addend: 0x0, symName: '__ZN76_$LT$core..ffi..c_str..FromBytesWithNulError$u20$as$u20$core..fmt..Debug$GT$3fmt17hc071ef8508fcaf69E', symObjAddr: 0x6A830, symBinAddr: 0x6516C, symSize: 0x70 }
  - { offset: 0x211A74, size: 0x8, addend: 0x0, symName: '__ZN76_$LT$core..ffi..c_str..FromBytesWithNulError$u20$as$u20$core..fmt..Debug$GT$3fmt17hc071ef8508fcaf69E', symObjAddr: 0x6A830, symBinAddr: 0x6516C, symSize: 0x70 }
  - { offset: 0x2401B8, size: 0x8, addend: 0x0, symName: __ZN4pyo33err5PyErr4take17he29a73c18ed80b9aE, symObjAddr: 0x70924, symBinAddr: 0x694E4, symSize: 0x31C }
  - { offset: 0x2404EA, size: 0x8, addend: 0x0, symName: '__ZN4pyo33err5PyErr4take28_$u7b$$u7b$closure$u7d$$u7d$17hb1188bd9d5107315E', symObjAddr: 0x721B4, symBinAddr: 0x6A710, symSize: 0x80 }
  - { offset: 0x2407B9, size: 0x8, addend: 0x0, symName: '__ZN4pyo33err5PyErr4take28_$u7b$$u7b$closure$u7d$$u7d$17hc8ecbbd4d0959233E', symObjAddr: 0x72234, symBinAddr: 0x6A790, symSize: 0x84 }
  - { offset: 0x241047, size: 0x8, addend: 0x0, symName: __ZN4pyo33err9err_state30lazy_into_normalized_ffi_tuple17hf50227d917eed611E, symObjAddr: 0x71AC8, symBinAddr: 0x6A1F0, symSize: 0x1E4 }
  - { offset: 0x24163D, size: 0x8, addend: 0x0, symName: '__ZN82_$LT$pyo3..err..cast_error..DisplayDowncastError$u20$as$u20$core..fmt..Display$GT$3fmt17h1cc6ce4e45f5d24dE', symObjAddr: 0x740E8, symBinAddr: 0x6C4F0, symSize: 0x238 }
  - { offset: 0x241C4B, size: 0x8, addend: 0x0, symName: '__ZN78_$LT$pyo3..err..cast_error..DisplayClassInfo$u20$as$u20$core..fmt..Display$GT$3fmt17h4902b7d3c41b7b53E', symObjAddr: 0x74358, symBinAddr: 0x6C760, symSize: 0x4CC }
  - { offset: 0x242963, size: 0x8, addend: 0x0, symName: '__ZN4pyo33err10cast_error110_$LT$impl$u20$core..convert..From$LT$pyo3..err..cast_error..CastIntoError$GT$$u20$for$u20$pyo3..err..PyErr$GT$4from17h6854b11a1f75f6e3E', symObjAddr: 0x74C44, symBinAddr: 0x6CFA0, symSize: 0xE0 }
  - { offset: 0x242C1C, size: 0x8, addend: 0x0, symName: '__ZN71_$LT$pyo3..err..cast_error..CastError$u20$as$u20$core..fmt..Display$GT$3fmt17hac8848ab472fd5c9E', symObjAddr: 0x7D664, symBinAddr: 0x737A0, symSize: 0x90 }
  - { offset: 0x242FEF, size: 0x8, addend: 0x0, symName: __ZN4pyo33err17panic_after_error17h88fbfe19be7a3cb5E, symObjAddr: 0x71FE4, symBinAddr: 0xAE908, symSize: 0x40 }
  - { offset: 0x243122, size: 0x8, addend: 0x0, symName: '__ZN53_$LT$pyo3..err..PyErr$u20$as$u20$core..fmt..Debug$GT$3fmt17he5f340741317f2c7E', symObjAddr: 0x72C34, symBinAddr: 0x6B0DC, symSize: 0xC2C }
  - { offset: 0x245548, size: 0x8, addend: 0x0, symName: '__ZN103_$LT$pyo3..instance..Bound$LT$pyo3..types..any..PyAny$GT$$u20$as$u20$pyo3..types..any..PyAnyMethods$GT$3str17had78edb085db8e78E', symObjAddr: 0x720C4, symBinAddr: 0x6A620, symSize: 0xF0 }
  - { offset: 0x245995, size: 0x8, addend: 0x0, symName: '__ZN119_$LT$pyo3..instance..Bound$LT$pyo3..types..typeobject..PyType$GT$$u20$as$u20$pyo3..types..typeobject..PyTypeMethods$GT$6module8INTERNED17h3d7d2e0d6a591230E', symObjAddr: 0xD6E70, symBinAddr: 0xF8578, symSize: 0x0 }
  - { offset: 0x245B22, size: 0x8, addend: 0x0, symName: __MergedGlobals, symObjAddr: 0xD7870, symBinAddr: 0xF8F78, symSize: 0x0 }
  - { offset: 0x245B40, size: 0x8, addend: 0x0, symName: __MergedGlobals, symObjAddr: 0xD7870, symBinAddr: 0xF8F78, symSize: 0x0 }
  - { offset: 0x245B5E, size: 0x8, addend: 0x0, symName: __MergedGlobals, symObjAddr: 0xD7870, symBinAddr: 0xF8F78, symSize: 0x0 }
  - { offset: 0x245CD3, size: 0x8, addend: 0x0, symName: __ZN4pyo35types6module7__all__8INTERNED17h2a8005227826149eE, symObjAddr: 0xD6E90, symBinAddr: 0xF8598, symSize: 0x0 }
  - { offset: 0x245DC4, size: 0x8, addend: 0x0, symName: '__ZN115_$LT$pyo3..instance..Bound$LT$pyo3..types..module..PyModule$GT$$u20$as$u20$pyo3..types..module..PyModuleMethods$GT$3add5inner17h050ed3158c72c49cE', symObjAddr: 0x74D24, symBinAddr: 0x6D080, symSize: 0x634 }
  - { offset: 0x24733B, size: 0x8, addend: 0x0, symName: '__ZN4pyo35types10boolobject65_$LT$impl$u20$pyo3..conversion..FromPyObject$u20$for$u20$bool$GT$7extract17h6759167a05cf0eeaE', symObjAddr: 0x7975C, symBinAddr: 0x6FD64, symSize: 0x974 }
  - { offset: 0x24934F, size: 0x8, addend: 0x0, symName: __ZN4pyo34sync9once_lock26init_once_cell_py_attached17h59d094ab8b3034efE, symObjAddr: 0x72024, symBinAddr: 0xAE948, symSize: 0xA0 }
  - { offset: 0x249732, size: 0x8, addend: 0x0, symName: __ZN4pyo34sync9once_lock26init_once_cell_py_attached17hddd6880339c14946E, symObjAddr: 0x73C70, symBinAddr: 0xAEA9C, symSize: 0xA0 }
  - { offset: 0x249B2C, size: 0x8, addend: 0x0, symName: __ZN4pyo34sync9once_lock30try_init_once_cell_py_attached17hbb67c27a80334816E, symObjAddr: 0x78CE8, symBinAddr: 0xB0498, symSize: 0xEC }
  - { offset: 0x24B2DD, size: 0x8, addend: 0x0, symName: '__ZN69_$LT$pyo3..instance..Py$LT$T$GT$$u20$as$u20$core..ops..drop..Drop$GT$4drop9drop_slow17h209d2917d930824cE', symObjAddr: 0x71054, symBinAddr: 0xAE5E8, symSize: 0x178 }
  - { offset: 0x24B9E2, size: 0x8, addend: 0x0, symName: __ZN4pyo38instance13python_format17h7c4d8391034f72c3E, symObjAddr: 0x738F0, symBinAddr: 0x6BD98, symSize: 0x27C }
  - { offset: 0x24BFF3, size: 0x8, addend: 0x0, symName: '__ZN69_$LT$pyo3..instance..Bound$LT$T$GT$$u20$as$u20$core..fmt..Display$GT$3fmt17h2d6610dd18d940e6E', symObjAddr: 0x73B6C, symBinAddr: 0x6C014, symSize: 0x104 }
  - { offset: 0x24C273, size: 0x8, addend: 0x0, symName: '__ZN69_$LT$pyo3..instance..Bound$LT$T$GT$$u20$as$u20$core..fmt..Display$GT$3fmt17hdd034f87da099890E', symObjAddr: 0x74824, symBinAddr: 0x6CC2C, symSize: 0x100 }
  - { offset: 0x24C5BA, size: 0x8, addend: 0x0, symName: '__ZN67_$LT$pyo3..instance..Bound$LT$T$GT$$u20$as$u20$core..fmt..Debug$GT$3fmt17h108733c548a647ceE', symObjAddr: 0x74B24, symBinAddr: 0x6CE80, symSize: 0x104 }
  - { offset: 0x24CB48, size: 0x8, addend: 0x0, symName: '__ZN4pyo38internal5state12ATTACH_COUNT29_$u7b$$u7b$constant$u7d$$u7d$28_$u7b$$u7b$closure$u7d$$u7d$3VAL17h75d2dd7564941046E', symObjAddr: 0xD7B70, symBinAddr: 0xF9280, symSize: 0x0 }
  - { offset: 0x24CB8D, size: 0x8, addend: 0x0, symName: __MergedGlobals, symObjAddr: 0xD7870, symBinAddr: 0xF8F78, symSize: 0x0 }
  - { offset: 0x24CD7C, size: 0x8, addend: 0x0, symName: '__ZN78_$LT$pyo3..internal..state..SuspendAttach$u20$as$u20$core..ops..drop..Drop$GT$4drop17hfa7eb500b883001bE', symObjAddr: 0x7D6F4, symBinAddr: 0x73830, symSize: 0x48 }
  - { offset: 0x24D0DE, size: 0x8, addend: 0x0, symName: __MergedGlobals, symObjAddr: 0xD7870, symBinAddr: 0xF8F78, symSize: 0x0 }
  - { offset: 0x24D5EA, size: 0x8, addend: 0x0, symName: __ZN4pyo37pyclass18create_type_object18create_type_object5inner17h077e7db91823d0acE, symObjAddr: 0x7A300, symBinAddr: 0x70908, symSize: 0x1B38 }
  - { offset: 0x254455, size: 0x8, addend: 0x0, symName: __ZN4pyo37pyclass18create_type_object16call_super_clear17he98ae6dbea96cc26E, symObjAddr: 0x7C8B8, symBinAddr: 0x729F4, symSize: 0x2E8 }
  - { offset: 0x25500D, size: 0x8, addend: 0x0, symName: __ZN4pyo37pyclass18create_type_object13GetSetDefType21create_py_get_set_def13getset_setter17hd20d603b29717fbdE, symObjAddr: 0x7CD34, symBinAddr: 0x72E70, symSize: 0x148 }
  - { offset: 0x255689, size: 0x8, addend: 0x0, symName: __ZN4pyo37pyclass18create_type_object13GetSetDefType21create_py_get_set_def6setter17h7659b4225279a6cdE, symObjAddr: 0x7CE7C, symBinAddr: 0x72FB8, symSize: 0x144 }
  - { offset: 0x255CBE, size: 0x8, addend: 0x0, symName: __ZN4pyo37pyclass18create_type_object13GetSetDefType21create_py_get_set_def13getset_getter17h22e5702654e45477E, symObjAddr: 0x7CFC0, symBinAddr: 0x730FC, symSize: 0x13C }
  - { offset: 0x256308, size: 0x8, addend: 0x0, symName: __ZN4pyo37pyclass18create_type_object13GetSetDefType21create_py_get_set_def6getter17h0d6edc25643a187fE, symObjAddr: 0x7D0FC, symBinAddr: 0x73238, symSize: 0x138 }
  - { offset: 0x2570E5, size: 0x8, addend: 0x0, symName: '__ZN135_$LT$pyo3..impl_..pyclass..lazy_type_object..LazyTypeObjectInner..ensure_init..InitializationGuard$u20$as$u20$core..ops..drop..Drop$GT$4drop17h6bf7c10e1c0337ecE', symObjAddr: 0x75358, symBinAddr: 0x6D6B4, symSize: 0x180 }
  - { offset: 0x257906, size: 0x8, addend: 0x0, symName: __ZN4pyo35impl_7pyclass16lazy_type_object21wrap_in_runtime_error17h4a2f70f9a47198e5E, symObjAddr: 0x784F0, symBinAddr: 0xB032C, symSize: 0xFC }
  - { offset: 0x257BD6, size: 0x8, addend: 0x0, symName: __ZN4pyo35impl_7pyclass16lazy_type_object23type_object_init_failed17h602831069d228fb3E, symObjAddr: 0x78C78, symBinAddr: 0xB0428, symSize: 0x70 }
  - { offset: 0x257D9C, size: 0x8, addend: 0x0, symName: __ZN4pyo35impl_7pyclass30get_sequence_item_from_mapping17hc39c808015f53246E, symObjAddr: 0x7C7D4, symBinAddr: 0x72910, symSize: 0x58 }
  - { offset: 0x257E30, size: 0x8, addend: 0x0, symName: __ZN4pyo35impl_7pyclass33assign_sequence_item_from_mapping17h2553a693329a15e3E, symObjAddr: 0x7C82C, symBinAddr: 0x72968, symSize: 0x8C }
  - { offset: 0x25801D, size: 0x8, addend: 0x0, symName: __ZN4pyo35impl_16extract_argument19push_parameter_list17h26a7a317d74f408dE, symObjAddr: 0x769E4, symBinAddr: 0x6E480, symSize: 0x314 }
  - { offset: 0x258D51, size: 0x8, addend: 0x0, symName: __ZN4pyo35impl_16extract_argument25argument_extraction_error17ha2ca986ea3a6f731E, symObjAddr: 0x772A0, symBinAddr: 0xAFA50, symSize: 0x414 }
  - { offset: 0x259F45, size: 0x8, addend: 0x0, symName: '__ZN71_$LT$pyo3..impl_..panic..PanicTrap$u20$as$u20$core..ops..drop..Drop$GT$4drop17h660650f48c121850E', symObjAddr: 0x794D8, symBinAddr: 0xB08F8, symSize: 0x44 }
  - { offset: 0x25A527, size: 0x8, addend: 0x0, symName: '__ZN4pyo311conversions3std6string68_$LT$impl$u20$pyo3..conversion..FromPyObject$u20$for$u20$$RF$str$GT$7extract17h1dece87c66509b9aE', symObjAddr: 0x75CCC, symBinAddr: 0x6DEF4, symSize: 0xD4 }
  - { offset: 0x25A99C, size: 0x8, addend: 0x0, symName: '__ZN4pyo311conversions3std3num63_$LT$impl$u20$pyo3..conversion..FromPyObject$u20$for$u20$u8$GT$7extract17h62ab32574306b9bbE', symObjAddr: 0x75898, symBinAddr: 0x6DAC0, symSize: 0x170 }
  - { offset: 0x25AE44, size: 0x8, addend: 0x0, symName: '__ZN4pyo311conversions3std3num66_$LT$impl$u20$pyo3..conversion..FromPyObject$u20$for$u20$usize$GT$7extract17hd299910b1d5d1a41E', symObjAddr: 0x75A08, symBinAddr: 0x6DC30, symSize: 0x2C4 }
  - { offset: 0x25B373, size: 0x8, addend: 0x0, symName: __ZN4pyo35panic14PanicException15type_object_raw11TYPE_OBJECT17h1eb6be99b28f6cacE, symObjAddr: 0xEDF980, symBinAddr: 0xF94C8, symSize: 0x0 }
  - { offset: 0x25B89B, size: 0x8, addend: 0x0, symName: '__ZN4pyo36pycell101_$LT$impl$u20$core..convert..From$LT$pyo3..pycell..PyBorrowError$GT$$u20$for$u20$pyo3..err..PyErr$GT$4from17hcc8f903c80de8a61E', symObjAddr: 0x7A0D0, symBinAddr: 0x706D8, symSize: 0x118 }
  - { offset: 0x25BC2D, size: 0x8, addend: 0x0, symName: '__ZN4pyo36pycell104_$LT$impl$u20$core..convert..From$LT$pyo3..pycell..PyBorrowMutError$GT$$u20$for$u20$pyo3..err..PyErr$GT$4from17h117cee473848dcf3E', symObjAddr: 0x7A1E8, symBinAddr: 0x707F0, symSize: 0x118 }
  - { offset: 0x25EECB, size: 0x8, addend: 0x0, symName: '__ZN66_$LT$core..option..Option$LT$T$GT$$u20$as$u20$core..fmt..Debug$GT$3fmt17h6cf22a07a1ea4c97E', symObjAddr: 0x7387C, symBinAddr: 0x6BD24, symSize: 0x64 }
  - { offset: 0x260C02, size: 0x8, addend: 0x0, symName: '__ZN4core3ptr53drop_in_place$LT$pyo3..err..err_state..PyErrState$GT$17h9b421373f5c85439E', symObjAddr: 0x70EA4, symBinAddr: 0x69800, symSize: 0xBC }
  - { offset: 0x26101B, size: 0x8, addend: 0x0, symName: '__ZN4core3ptr63drop_in_place$LT$pyo3..err..err_state..PyErrStateNormalized$GT$17hbcea057909dc7848E', symObjAddr: 0x70F60, symBinAddr: 0x698BC, symSize: 0xF4 }
  - { offset: 0x2612E0, size: 0x8, addend: 0x0, symName: '__ZN4core3ptr150drop_in_place$LT$std..sync..poison..mutex..MutexGuard$LT$alloc..vec..Vec$LT$core..ptr..non_null..NonNull$LT$pyo3_ffi..object..PyObject$GT$$GT$$GT$$GT$17h83274f5b2dbeabd7E', symObjAddr: 0x712C8, symBinAddr: 0x69A6C, symSize: 0x4C }
  - { offset: 0x2612FC, size: 0x8, addend: 0x0, symName: '__ZN4core3ptr150drop_in_place$LT$std..sync..poison..mutex..MutexGuard$LT$alloc..vec..Vec$LT$core..ptr..non_null..NonNull$LT$pyo3_ffi..object..PyObject$GT$$GT$$GT$$GT$17h83274f5b2dbeabd7E', symObjAddr: 0x712C8, symBinAddr: 0x69A6C, symSize: 0x4C }
  - { offset: 0x2613F4, size: 0x8, addend: 0x0, symName: '__ZN4core3ptr57drop_in_place$LT$pyo3..internal..state..SuspendAttach$GT$17ha0a7246d56848d6eE', symObjAddr: 0x71408, symBinAddr: 0x69B30, symSize: 0x48 }
  - { offset: 0x26163B, size: 0x8, addend: 0x0, symName: '__ZN4core3ptr114drop_in_place$LT$std..sync..poison..mutex..MutexGuard$LT$core..option..Option$LT$std..thread..ThreadId$GT$$GT$$GT$17he3dbbdaed9732d4aE', symObjAddr: 0x7161C, symBinAddr: 0x69D44, symSize: 0x54 }
  - { offset: 0x261657, size: 0x8, addend: 0x0, symName: '__ZN4core3ptr114drop_in_place$LT$std..sync..poison..mutex..MutexGuard$LT$core..option..Option$LT$std..thread..ThreadId$GT$$GT$$GT$17he3dbbdaed9732d4aE', symObjAddr: 0x7161C, symBinAddr: 0x69D44, symSize: 0x54 }
  - { offset: 0x2617E7, size: 0x8, addend: 0x0, symName: '__ZN4core3ptr157drop_in_place$LT$pyo3..err..err_state..PyErrState..make_normalized..$u7b$$u7b$closure$u7d$$u7d$..$u7b$$u7b$closure$u7d$$u7d$..$u7b$$u7b$closure$u7d$$u7d$$GT$17h6795587bd1550c78E', symObjAddr: 0x71CAC, symBinAddr: 0x6A3D4, symSize: 0x84 }
  - { offset: 0x2619DA, size: 0x8, addend: 0x0, symName: '__ZN4core3ptr70drop_in_place$LT$pyo3..instance..Py$LT$pyo3..types..any..PyAny$GT$$GT$17h4915d1bacfdf0542E', symObjAddr: 0x71D30, symBinAddr: 0x6A458, symSize: 0x58 }
  - { offset: 0x261CB3, size: 0x8, addend: 0x0, symName: '__ZN4core3ptr109drop_in_place$LT$std..sync..poison..mutex..Mutex$LT$core..option..Option$LT$std..thread..ThreadId$GT$$GT$$GT$17hc0be6fb221644170E', symObjAddr: 0x72554, symBinAddr: 0x6AAB0, symSize: 0x48 }
  - { offset: 0x261EC2, size: 0x8, addend: 0x0, symName: '__ZN4core3ptr408drop_in_place$LT$core..option..Option$LT$once_cell..sync..OnceCell$LT$pyo3..instance..Py$LT$pyo3..types..typeobject..PyType$GT$$GT$..get_or_init$LT$pyo3..sync..once_lock..init_once_cell_py_attached$LT$pyo3..panic..PanicException..type_object_raw..$u7b$$u7b$closure$u7d$$u7d$$C$pyo3..instance..Py$LT$pyo3..types..typeobject..PyType$GT$$GT$..$u7b$$u7b$closure$u7d$$u7d$$GT$..$u7b$$u7b$closure$u7d$$u7d$$GT$$GT$17hf73af378279127bdE', symObjAddr: 0x72930, symBinAddr: 0x6ADD8, symSize: 0x4C }
  - { offset: 0x2620DE, size: 0x8, addend: 0x0, symName: '__ZN4core3ptr37drop_in_place$LT$pyo3..err..PyErr$GT$17hb9839027fdb2ea57E', symObjAddr: 0x72C30, symBinAddr: 0x6B0D8, symSize: 0x4 }
  - { offset: 0x262137, size: 0x8, addend: 0x0, symName: '__ZN4core3ptr70drop_in_place$LT$core..option..Option$LT$alloc..string..String$GT$$GT$17hcc860c425655dfdcE', symObjAddr: 0x73860, symBinAddr: 0x6BD08, symSize: 0x1C }
  - { offset: 0x26228D, size: 0x8, addend: 0x0, symName: '__ZN4core3ptr62drop_in_place$LT$pyo3..err..cast_error..CastErrorArguments$GT$17h14e2a79dc023177eE', symObjAddr: 0x73E9C, symBinAddr: 0x6C2A4, symSize: 0xB8 }
  - { offset: 0x262441, size: 0x8, addend: 0x0, symName: '__ZN4core3ptr152drop_in_place$LT$pyo3..err..PyErr..new$LT$pyo3..exceptions..PyTypeError$C$pyo3..err..cast_error..CastErrorArguments$GT$..$u7b$$u7b$closure$u7d$$u7d$$GT$17h15c0d57d56feba8fE', symObjAddr: 0x73F54, symBinAddr: 0x6C35C, symSize: 0xC }
  - { offset: 0x26247D, size: 0x8, addend: 0x0, symName: '__ZN4core3ptr126drop_in_place$LT$core..result..Result$LT$pyo3..instance..Bound$LT$pyo3..types..string..PyString$GT$$C$pyo3..err..PyErr$GT$$GT$17hf89da3700222ca12E', symObjAddr: 0x74320, symBinAddr: 0x6C728, symSize: 0x28 }
  - { offset: 0x2625A4, size: 0x8, addend: 0x0, symName: '__ZN4core3ptr385drop_in_place$LT$core..option..Option$LT$once_cell..sync..OnceCell$LT$pyo3..instance..Py$LT$pyo3..types..string..PyString$GT$$GT$..get_or_init$LT$pyo3..sync..once_lock..init_once_cell_py_attached$LT$pyo3..sync..Interned..get..$u7b$$u7b$closure$u7d$$u7d$$C$pyo3..instance..Py$LT$pyo3..types..string..PyString$GT$$GT$..$u7b$$u7b$closure$u7d$$u7d$$GT$..$u7b$$u7b$closure$u7d$$u7d$$GT$$GT$17hcdd2b025403529dbE', symObjAddr: 0x749D0, symBinAddr: 0x6CD2C, symSize: 0x4C }
  - { offset: 0x2627DF, size: 0x8, addend: 0x0, symName: '__ZN4core3ptr81drop_in_place$LT$pyo3..instance..Bound$LT$pyo3..types..typeobject..PyType$GT$$GT$17h8c05fbcd798cac96E', symObjAddr: 0x74C28, symBinAddr: 0x6CF84, symSize: 0x1C }
  - { offset: 0x262933, size: 0x8, addend: 0x0, symName: '__ZN4core3ptr155drop_in_place$LT$pyo3..err..err_state..PyErrState..lazy_arguments$LT$pyo3..instance..Py$LT$pyo3..types..any..PyAny$GT$$GT$..$u7b$$u7b$closure$u7d$$u7d$$GT$17h4a8b3106767eecbeE', symObjAddr: 0x75DF4, symBinAddr: 0x6E01C, symSize: 0xB4 }
  - { offset: 0x262B29, size: 0x8, addend: 0x0, symName: '__ZN4core3ptr139drop_in_place$LT$pyo3..err..PyErr..new$LT$pyo3..exceptions..PyValueError$C$alloc..ffi..c_str..NulError$GT$..$u7b$$u7b$closure$u7d$$u7d$$GT$17ha95babdbc42c5083E', symObjAddr: 0x76030, symBinAddr: 0x6E258, symSize: 0x18 }
  - { offset: 0x262C1C, size: 0x8, addend: 0x0, symName: '__ZN4core3ptr132drop_in_place$LT$pyo3..err..PyErr..new$LT$pyo3..exceptions..PyTypeError$C$alloc..string..String$GT$..$u7b$$u7b$closure$u7d$$u7d$$GT$17h4906dc0ffca12586E', symObjAddr: 0x76194, symBinAddr: 0x6E3BC, symSize: 0x18 }
  - { offset: 0x262C3C, size: 0x8, addend: 0x0, symName: '__ZN4core3ptr132drop_in_place$LT$pyo3..err..PyErr..new$LT$pyo3..exceptions..PyTypeError$C$alloc..string..String$GT$..$u7b$$u7b$closure$u7d$$u7d$$GT$17h4906dc0ffca12586E', symObjAddr: 0x76194, symBinAddr: 0x6E3BC, symSize: 0x18 }
  - { offset: 0x262F13, size: 0x8, addend: 0x0, symName: '__ZN4core3ptr109drop_in_place$LT$std..sync..poison..mutex..MutexGuard$LT$alloc..vec..Vec$LT$std..thread..ThreadId$GT$$GT$$GT$17h82ab6af5104ecb59E', symObjAddr: 0x77F7C, symBinAddr: 0x6EF10, symSize: 0x54 }
  - { offset: 0x262F2F, size: 0x8, addend: 0x0, symName: '__ZN4core3ptr109drop_in_place$LT$std..sync..poison..mutex..MutexGuard$LT$alloc..vec..Vec$LT$std..thread..ThreadId$GT$$GT$$GT$17h82ab6af5104ecb59E', symObjAddr: 0x77F7C, symBinAddr: 0x6EF10, symSize: 0x54 }
  - { offset: 0x2630C3, size: 0x8, addend: 0x0, symName: '__ZN4core3ptr130drop_in_place$LT$alloc..vec..Vec$LT$$LP$$RF$core..ffi..c_str..CStr$C$pyo3..instance..Py$LT$pyo3..types..any..PyAny$GT$$RP$$GT$$GT$17h0a165d3d912ce86dE', symObjAddr: 0x78080, symBinAddr: 0x6F014, symSize: 0xF4 }
  - { offset: 0x2633E8, size: 0x8, addend: 0x0, symName: '__ZN4core3ptr107drop_in_place$LT$$LP$$RF$core..ffi..c_str..CStr$C$pyo3..instance..Py$LT$pyo3..types..any..PyAny$GT$$RP$$GT$17hd66d6a535ef32063E', symObjAddr: 0x786A0, symBinAddr: 0x6F1BC, symSize: 0x58 }
  - { offset: 0x2634F9, size: 0x8, addend: 0x0, symName: '__ZN4core3ptr146drop_in_place$LT$alloc..vec..into_iter..IntoIter$LT$$LP$$RF$core..ffi..c_str..CStr$C$pyo3..instance..Py$LT$pyo3..types..any..PyAny$GT$$RP$$GT$$GT$17hc235d72d2f38d1b7E', symObjAddr: 0x78888, symBinAddr: 0x6F3A4, symSize: 0x104 }
  - { offset: 0x2638D4, size: 0x8, addend: 0x0, symName: '__ZN4core3ptr106drop_in_place$LT$core..option..Option$LT$pyo3..instance..Py$LT$pyo3..types..typeobject..PyType$GT$$GT$$GT$17hf8d6e50ac629642aE', symObjAddr: 0x7898C, symBinAddr: 0x6F4A8, symSize: 0x54 }
  - { offset: 0x263A80, size: 0x8, addend: 0x0, symName: '__ZN4core3ptr73drop_in_place$LT$pyo3..pyclass..create_type_object..PyClassTypeObject$GT$17hf6588e6d82797244E', symObjAddr: 0x78A70, symBinAddr: 0x6F58C, symSize: 0xD4 }
  - { offset: 0x263D8F, size: 0x8, addend: 0x0, symName: '__ZN4core3ptr98drop_in_place$LT$alloc..vec..Vec$LT$pyo3..pyclass..create_type_object..GetSetDefDestructor$GT$$GT$17h553b8fbe99577027E', symObjAddr: 0x78B44, symBinAddr: 0x6F660, symSize: 0x7C }
  - { offset: 0x263FEA, size: 0x8, addend: 0x0, symName: '__ZN4core3ptr290drop_in_place$LT$core..option..Option$LT$pyo3..sync..once_lock..try_init_once_cell_py_attached$LT$pyo3..impl_..pymodule..ModuleDef..make_module..$u7b$$u7b$closure$u7d$$u7d$$C$pyo3..instance..Py$LT$pyo3..types..module..PyModule$GT$$C$pyo3..err..PyErr$GT$..$u7b$$u7b$closure$u7d$$u7d$$GT$$GT$17h622e725c34aef822E', symObjAddr: 0x78F2C, symBinAddr: 0x6F804, symSize: 0x4C }
  - { offset: 0x264274, size: 0x8, addend: 0x0, symName: '__ZN4core3ptr141drop_in_place$LT$pyo3..err..PyErr..new$LT$pyo3..panic..PanicException$C$$LP$alloc..string..String$C$$RP$$GT$..$u7b$$u7b$closure$u7d$$u7d$$GT$17he241b517636c7f92E', symObjAddr: 0x7951C, symBinAddr: 0x6FB24, symSize: 0x18 }
  - { offset: 0x2648A7, size: 0x8, addend: 0x0, symName: '__ZN4core3ptr69drop_in_place$LT$pyo3..pyclass..create_type_object..PyTypeBuilder$GT$17hee667e0073a88fe7E', symObjAddr: 0x7BEE8, symBinAddr: 0x724F0, symSize: 0xDC }
  - { offset: 0x2652B3, size: 0x8, addend: 0x0, symName: '__ZN4core3ptr272drop_in_place$LT$alloc..vec..into_iter..IntoIter$LT$alloc..boxed..Box$LT$dyn$u20$core..ops..function..Fn$LT$$LP$$RF$pyo3..pyclass..create_type_object..PyTypeBuilder$C$$BP$mut$u20$pyo3_ffi..cpython..object..PyTypeObject$RP$$GT$$u2b$Output$u20$$u3d$$u20$$LP$$RP$$GT$$GT$$GT$17h44afd7363c5c146dE', symObjAddr: 0x7CBA0, symBinAddr: 0x72CDC, symSize: 0x6C }
  - { offset: 0x2655B1, size: 0x8, addend: 0x0, symName: '__ZN4core3ptr243drop_in_place$LT$$u5b$alloc..boxed..Box$LT$dyn$u20$core..ops..function..Fn$LT$$LP$$RF$pyo3..pyclass..create_type_object..PyTypeBuilder$C$$BP$mut$u20$pyo3_ffi..cpython..object..PyTypeObject$RP$$GT$$u2b$Output$u20$$u3d$$u20$$LP$$RP$$GT$$u5d$$GT$17h16c5b2c339cc0097E', symObjAddr: 0x7CC0C, symBinAddr: 0x72D48, symSize: 0xB0 }
  - { offset: 0x265789, size: 0x8, addend: 0x0, symName: '__ZN4core3ptr233drop_in_place$LT$alloc..boxed..Box$LT$dyn$u20$core..ops..function..Fn$LT$$LP$$RF$pyo3..pyclass..create_type_object..PyTypeBuilder$C$$BP$mut$u20$pyo3_ffi..cpython..object..PyTypeObject$RP$$GT$$u2b$Output$u20$$u3d$$u20$$LP$$RP$$GT$$GT$17h6bdf6a42eb15ffb7E', symObjAddr: 0x7CCBC, symBinAddr: 0x72DF8, symSize: 0x78 }
  - { offset: 0x265941, size: 0x8, addend: 0x0, symName: __ZN4core3ptr19swap_nonoverlapping17hac4eaae711ad0256E, symObjAddr: 0x7D418, symBinAddr: 0x73554, symSize: 0x64 }
  - { offset: 0x26598C, size: 0x8, addend: 0x0, symName: __ZN4core3ptr19swap_nonoverlapping17hac4eaae711ad0256E, symObjAddr: 0x7D418, symBinAddr: 0x73554, symSize: 0x64 }
  - { offset: 0x2659B1, size: 0x8, addend: 0x0, symName: __ZN4core3ptr19swap_nonoverlapping17hac4eaae711ad0256E, symObjAddr: 0x7D418, symBinAddr: 0x73554, symSize: 0x64 }
  - { offset: 0x2659CB, size: 0x8, addend: 0x0, symName: __ZN4core3ptr19swap_nonoverlapping17hac4eaae711ad0256E, symObjAddr: 0x7D418, symBinAddr: 0x73554, symSize: 0x64 }
  - { offset: 0x2659E2, size: 0x8, addend: 0x0, symName: __ZN4core3ptr19swap_nonoverlapping17hac4eaae711ad0256E, symObjAddr: 0x7D418, symBinAddr: 0x73554, symSize: 0x64 }
  - { offset: 0x2659FD, size: 0x8, addend: 0x0, symName: __ZN4core3ptr19swap_nonoverlapping17hac4eaae711ad0256E, symObjAddr: 0x7D418, symBinAddr: 0x73554, symSize: 0x64 }
  - { offset: 0x265A22, size: 0x8, addend: 0x0, symName: __ZN4core3ptr19swap_nonoverlapping17hac4eaae711ad0256E, symObjAddr: 0x7D418, symBinAddr: 0x73554, symSize: 0x64 }
  - { offset: 0x265A39, size: 0x8, addend: 0x0, symName: __ZN4core3ptr19swap_nonoverlapping17hac4eaae711ad0256E, symObjAddr: 0x7D418, symBinAddr: 0x73554, symSize: 0x64 }
  - { offset: 0x265A50, size: 0x8, addend: 0x0, symName: __ZN4core3ptr19swap_nonoverlapping17hac4eaae711ad0256E, symObjAddr: 0x7D418, symBinAddr: 0x73554, symSize: 0x64 }
  - { offset: 0x265A67, size: 0x8, addend: 0x0, symName: __ZN4core3ptr19swap_nonoverlapping17hac4eaae711ad0256E, symObjAddr: 0x7D418, symBinAddr: 0x73554, symSize: 0x64 }
  - { offset: 0x265A82, size: 0x8, addend: 0x0, symName: __ZN4core3ptr19swap_nonoverlapping17hac4eaae711ad0256E, symObjAddr: 0x7D418, symBinAddr: 0x73554, symSize: 0x64 }
  - { offset: 0x265AA7, size: 0x8, addend: 0x0, symName: __ZN4core3ptr19swap_nonoverlapping17hac4eaae711ad0256E, symObjAddr: 0x7D418, symBinAddr: 0x73554, symSize: 0x64 }
  - { offset: 0x265ABE, size: 0x8, addend: 0x0, symName: __ZN4core3ptr19swap_nonoverlapping17hac4eaae711ad0256E, symObjAddr: 0x7D418, symBinAddr: 0x73554, symSize: 0x64 }
  - { offset: 0x265AD8, size: 0x8, addend: 0x0, symName: __ZN4core3ptr19swap_nonoverlapping17hac4eaae711ad0256E, symObjAddr: 0x7D418, symBinAddr: 0x73554, symSize: 0x64 }
  - { offset: 0x265AF6, size: 0x8, addend: 0x0, symName: __ZN4core3ptr19swap_nonoverlapping17hac4eaae711ad0256E, symObjAddr: 0x7D418, symBinAddr: 0x73554, symSize: 0x64 }
  - { offset: 0x266546, size: 0x8, addend: 0x0, symName: '__ZN70_$LT$core..num..error..TryFromIntError$u20$as$u20$core..fmt..Debug$GT$3fmt17h14ce7830233a5c8dE.2046', symObjAddr: 0x75DA0, symBinAddr: 0x6DFC8, symSize: 0x40 }
  - { offset: 0x26B3EE, size: 0x8, addend: 0x0, symName: '__ZN42_$LT$$RF$T$u20$as$u20$core..fmt..Debug$GT$3fmt17hc583d4be1ab2be99E', symObjAddr: 0x738E0, symBinAddr: 0x6BD88, symSize: 0x10 }
  - { offset: 0x26B453, size: 0x8, addend: 0x0, symName: '__ZN42_$LT$$RF$T$u20$as$u20$core..fmt..Debug$GT$3fmt17h3a5ce5d4d01c39b2E', symObjAddr: 0x75514, symBinAddr: 0x6D834, symSize: 0x1C }
  - { offset: 0x26B4D9, size: 0x8, addend: 0x0, symName: '__ZN42_$LT$$RF$T$u20$as$u20$core..fmt..Debug$GT$3fmt17h9f19d732016def7bE', symObjAddr: 0x75DE0, symBinAddr: 0x6E008, symSize: 0x14 }
  - { offset: 0x26B53A, size: 0x8, addend: 0x0, symName: '__ZN42_$LT$$RF$T$u20$as$u20$core..fmt..Debug$GT$3fmt17h32e38c78ab6601b8E', symObjAddr: 0x78768, symBinAddr: 0x6F284, symSize: 0x64 }
  - { offset: 0x26B5B3, size: 0x8, addend: 0x0, symName: '__ZN42_$LT$$RF$T$u20$as$u20$core..fmt..Debug$GT$3fmt17hb15f3e7ea7f867ccE', symObjAddr: 0x787CC, symBinAddr: 0x6F2E8, symSize: 0x1C }
  - { offset: 0x26B6A1, size: 0x8, addend: 0x0, symName: '__ZN53_$LT$core..fmt..Error$u20$as$u20$core..fmt..Debug$GT$3fmt17h2c60f2117c688a19E.2033', symObjAddr: 0x755D0, symBinAddr: 0x6D8F0, symSize: 0x14 }
  - { offset: 0x26B72A, size: 0x8, addend: 0x0, symName: __ZN4core3fmt5Write9write_fmt17hbd5b9150578bc430E, symObjAddr: 0x75784, symBinAddr: 0x6DAA4, symSize: 0x1C }
  - { offset: 0x26B7F9, size: 0x8, addend: 0x0, symName: '__ZN44_$LT$$RF$T$u20$as$u20$core..fmt..Display$GT$3fmt17h073debf40f402b2eE', symObjAddr: 0x763E0, symBinAddr: 0x6E474, symSize: 0xC }
  - { offset: 0x26B83F, size: 0x8, addend: 0x0, symName: '__ZN44_$LT$$RF$T$u20$as$u20$core..fmt..Display$GT$3fmt17h31d7b2dda2454025E', symObjAddr: 0x776B4, symBinAddr: 0x6E794, symSize: 0x104 }
  - { offset: 0x26BB04, size: 0x8, addend: 0x0, symName: '__ZN64_$LT$core..str..error..Utf8Error$u20$as$u20$core..fmt..Debug$GT$3fmt17h79557e929f64eed5E', symObjAddr: 0x786F8, symBinAddr: 0x6F214, symSize: 0x70 }
  - { offset: 0x26C1A1, size: 0x8, addend: 0x0, symName: __ZN4core9panicking13assert_failed17hef265eb3122add55E, symObjAddr: 0x754D8, symBinAddr: 0xAEBE8, symSize: 0x3C }
  - { offset: 0x26C2AC, size: 0x8, addend: 0x0, symName: '__ZN4core3ops8function6FnOnce40call_once$u7b$$u7b$vtable.shim$u7d$$u7d$17hff47a0308d5f8027E', symObjAddr: 0x71390, symBinAddr: 0x69AB8, symSize: 0x3C }
  - { offset: 0x26C3E0, size: 0x8, addend: 0x0, symName: '__ZN4core3ops8function6FnOnce40call_once$u7b$$u7b$vtable.shim$u7d$$u7d$17h24334371b0a18db2E', symObjAddr: 0x71670, symBinAddr: 0x69D98, symSize: 0x28 }
  - { offset: 0x26C469, size: 0x8, addend: 0x0, symName: '__ZN4core3ops8function6FnOnce40call_once$u7b$$u7b$vtable.shim$u7d$$u7d$17hf768e7b98ba34de8E', symObjAddr: 0x71DF4, symBinAddr: 0x6A4B0, symSize: 0x80 }
  - { offset: 0x26C526, size: 0x8, addend: 0x0, symName: '__ZN4core3ops8function6FnOnce40call_once$u7b$$u7b$vtable.shim$u7d$$u7d$17ha31a87a5b8cd66f2E', symObjAddr: 0x71F74, symBinAddr: 0x6A5B0, symSize: 0x70 }
  - { offset: 0x26C717, size: 0x8, addend: 0x0, symName: '__ZN4core3ops8function6FnOnce40call_once$u7b$$u7b$vtable.shim$u7d$$u7d$17hb2cfef451828e448E', symObjAddr: 0x72828, symBinAddr: 0x6AD84, symSize: 0x28 }
  - { offset: 0x26C7FC, size: 0x8, addend: 0x0, symName: '__ZN4core3ops8function6FnOnce40call_once$u7b$$u7b$vtable.shim$u7d$$u7d$17hcd1107b6b1e50158E', symObjAddr: 0x7297C, symBinAddr: 0x6AE24, symSize: 0x18 }
  - { offset: 0x26C85D, size: 0x8, addend: 0x0, symName: '__ZN4core3ops8function6FnOnce40call_once$u7b$$u7b$vtable.shim$u7d$$u7d$17hee285e09d9b6e4b2E', symObjAddr: 0x73F60, symBinAddr: 0x6C368, symSize: 0x188 }
  - { offset: 0x26CE7C, size: 0x8, addend: 0x0, symName: '__ZN4core3ops8function6FnOnce40call_once$u7b$$u7b$vtable.shim$u7d$$u7d$17hc54d19f3fdf67db0E', symObjAddr: 0x74A1C, symBinAddr: 0x6CD78, symSize: 0x18 }
  - { offset: 0x26CF00, size: 0x8, addend: 0x0, symName: '__ZN4core3ops8function6FnOnce40call_once$u7b$$u7b$vtable.shim$u7d$$u7d$17he0c6e1eb17306cb4E', symObjAddr: 0x75530, symBinAddr: 0x6D850, symSize: 0xA0 }
  - { offset: 0x26D2CF, size: 0x8, addend: 0x0, symName: '__ZN4core3ops8function6FnOnce40call_once$u7b$$u7b$vtable.shim$u7d$$u7d$17ha11162efbb239fa6E', symObjAddr: 0x75EA8, symBinAddr: 0x6E0D0, symSize: 0xC }
  - { offset: 0x26D312, size: 0x8, addend: 0x0, symName: '__ZN4core3ops8function6FnOnce40call_once$u7b$$u7b$vtable.shim$u7d$$u7d$17h5a0c4039c9b71380E', symObjAddr: 0x76048, symBinAddr: 0x6E270, symSize: 0x14C }
  - { offset: 0x26D971, size: 0x8, addend: 0x0, symName: '__ZN4core3ops8function6FnOnce40call_once$u7b$$u7b$vtable.shim$u7d$$u7d$17h7767b7e98f83f2a8E', symObjAddr: 0x761AC, symBinAddr: 0x6E3D4, symSize: 0xA0 }
  - { offset: 0x26DD62, size: 0x8, addend: 0x0, symName: '__ZN4core3ops8function6FnOnce40call_once$u7b$$u7b$vtable.shim$u7d$$u7d$17ha9e13eec56a64c00E', symObjAddr: 0x787E8, symBinAddr: 0x6F304, symSize: 0xA0 }
  - { offset: 0x26E15D, size: 0x8, addend: 0x0, symName: '__ZN4core3ops8function6FnOnce40call_once$u7b$$u7b$vtable.shim$u7d$$u7d$17hbbb51047baa9d357E', symObjAddr: 0x789E0, symBinAddr: 0x6F4FC, symSize: 0x48 }
  - { offset: 0x26E2C8, size: 0x8, addend: 0x0, symName: '__ZN4core3ops8function6FnOnce40call_once$u7b$$u7b$vtable.shim$u7d$$u7d$17h46968f1a9009a7f0E', symObjAddr: 0x78BC0, symBinAddr: 0x6F6DC, symSize: 0x5C }
  - { offset: 0x26E3FF, size: 0x8, addend: 0x0, symName: '__ZN4core3ops8function6FnOnce40call_once$u7b$$u7b$vtable.shim$u7d$$u7d$17h9bc3698d8b3bffffE', symObjAddr: 0x78DD4, symBinAddr: 0x6F794, symSize: 0x70 }
  - { offset: 0x26E5F7, size: 0x8, addend: 0x0, symName: '__ZN4core3ops8function6FnOnce40call_once$u7b$$u7b$vtable.shim$u7d$$u7d$17ha8184abce8111a28E', symObjAddr: 0x78F78, symBinAddr: 0x6F850, symSize: 0x4 }
  - { offset: 0x26E62A, size: 0x8, addend: 0x0, symName: '__ZN4core3ops8function6FnOnce40call_once$u7b$$u7b$vtable.shim$u7d$$u7d$17ha8184abce8111a28E', symObjAddr: 0x78F78, symBinAddr: 0x6F850, symSize: 0x4 }
  - { offset: 0x26E656, size: 0x8, addend: 0x0, symName: '__ZN4core3ops8function6FnOnce40call_once$u7b$$u7b$vtable.shim$u7d$$u7d$17h8dd9aab90d44d2f9E', symObjAddr: 0x79534, symBinAddr: 0x6FB3C, symSize: 0x134 }
  - { offset: 0x26ED7F, size: 0x8, addend: 0x0, symName: '__ZN4core3ops8function6FnOnce40call_once$u7b$$u7b$vtable.shim$u7d$$u7d$17hb8a34d2c7750c782E', symObjAddr: 0x79668, symBinAddr: 0x6FC70, symSize: 0xF4 }
  - { offset: 0x26FA3C, size: 0x8, addend: 0x0, symName: '__ZN36_$LT$T$u20$as$u20$core..any..Any$GT$7type_id17hbe7285fefc71041aE', symObjAddr: 0x72540, symBinAddr: 0x6AA9C, symSize: 0x14 }
  - { offset: 0x26FA68, size: 0x8, addend: 0x0, symName: '__ZN36_$LT$T$u20$as$u20$core..any..Any$GT$7type_id17hbe7285fefc71041aE', symObjAddr: 0x72540, symBinAddr: 0x6AA9C, symSize: 0x14 }
  - { offset: 0x2701BC, size: 0x8, addend: 0x0, symName: '__ZN102_$LT$core..iter..adapters..map..Map$LT$I$C$F$GT$$u20$as$u20$core..iter..traits..iterator..Iterator$GT$4next17h08cbe5d07958a741E', symObjAddr: 0x7C5FC, symBinAddr: 0x72738, symSize: 0x1D8 }
  - { offset: 0x2719C1, size: 0x8, addend: 0x0, symName: __ZN4core4hash11BuildHasher8hash_one17h981aeff226ff7571E, symObjAddr: 0x7D2E4, symBinAddr: 0x73420, symSize: 0x134 }
  - { offset: 0x273A6C, size: 0x8, addend: 0x0, symName: '__ZN9once_cell3imp17OnceCell$LT$T$GT$10initialize28_$u7b$$u7b$closure$u7d$$u7d$17haa84a4d3b846f435E', symObjAddr: 0x72994, symBinAddr: 0x6AE3C, symSize: 0x29C }
  - { offset: 0x27419A, size: 0x8, addend: 0x0, symName: '__ZN9once_cell3imp17OnceCell$LT$T$GT$10initialize28_$u7b$$u7b$closure$u7d$$u7d$17hac1815207eaa3cd9E', symObjAddr: 0x74A34, symBinAddr: 0x6CD90, symSize: 0xF0 }
  - { offset: 0x2745F4, size: 0x8, addend: 0x0, symName: '__ZN9once_cell3imp17OnceCell$LT$T$GT$10initialize28_$u7b$$u7b$closure$u7d$$u7d$17h2ada70d17346f375E', symObjAddr: 0x78F7C, symBinAddr: 0x6F854, symSize: 0x2D0 }
  - { offset: 0x275374, size: 0x8, addend: 0x0, symName: '__ZN3std4sync6poison4once4Once15call_once_force28_$u7b$$u7b$closure$u7d$$u7d$17he5e3c73aaff90634E', symObjAddr: 0x713CC, symBinAddr: 0x69AF4, symSize: 0x3C }
  - { offset: 0x275464, size: 0x8, addend: 0x0, symName: '__ZN3std4sync6poison4once4Once15call_once_force28_$u7b$$u7b$closure$u7d$$u7d$17h830352aaaab4e617E', symObjAddr: 0x71E74, symBinAddr: 0x6A530, symSize: 0x80 }
  - { offset: 0x27550A, size: 0x8, addend: 0x0, symName: '__ZN3std4sync6poison4once4Once15call_once_force28_$u7b$$u7b$closure$u7d$$u7d$17h595efb5fc555bc49E', symObjAddr: 0x78A28, symBinAddr: 0x6F544, symSize: 0x48 }
  - { offset: 0x275631, size: 0x8, addend: 0x0, symName: '__ZN3std4sync6poison4once4Once15call_once_force28_$u7b$$u7b$closure$u7d$$u7d$17h3ac1fd199be7f37bE', symObjAddr: 0x78C1C, symBinAddr: 0x6F738, symSize: 0x5C }
  - { offset: 0x275750, size: 0x8, addend: 0x0, symName: '__ZN3std4sync6poison4once4Once9call_once28_$u7b$$u7b$closure$u7d$$u7d$17h81d3dc4cb6c86562E', symObjAddr: 0x71698, symBinAddr: 0x69DC0, symSize: 0x334 }
  - { offset: 0x276286, size: 0x8, addend: 0x0, symName: '__ZN3std4sync6poison4once4Once9call_once28_$u7b$$u7b$closure$u7d$$u7d$17hd9b1629f3ad52a62E', symObjAddr: 0x72850, symBinAddr: 0x6ADAC, symSize: 0x2C }
  - { offset: 0x276A42, size: 0x8, addend: 0x0, symName: '__ZN71_$LT$std..hash..random..DefaultHasher$u20$as$u20$core..hash..Hasher$GT$5write17h13eb931214a9e5e6E.2102', symObjAddr: 0x7D47C, symBinAddr: 0x735B8, symSize: 0x1E8 }
  - { offset: 0x27A1B9, size: 0x8, addend: 0x0, symName: __ZN5alloc7raw_vec11finish_grow17h088181ea774270ceE, symObjAddr: 0x71314, symBinAddr: 0xAE7A0, symSize: 0x7C }
  - { offset: 0x27A3BD, size: 0x8, addend: 0x0, symName: '__ZN5alloc7raw_vec20RawVecInner$LT$A$GT$7reserve21do_reserve_and_handle17h7239384dfa006e2eE', symObjAddr: 0x757A0, symBinAddr: 0xAEC24, symSize: 0xF8 }
  - { offset: 0x27AE4F, size: 0x8, addend: 0x0, symName: '__ZN58_$LT$alloc..string..String$u20$as$u20$core..fmt..Write$GT$9write_str17h4f289a0bc5411d70E.2034', symObjAddr: 0x755E4, symBinAddr: 0x6D904, symSize: 0x80 }
  - { offset: 0x27B0EE, size: 0x8, addend: 0x0, symName: '__ZN58_$LT$alloc..string..String$u20$as$u20$core..fmt..Write$GT$10write_char17hf5eb0556627f32e1E.2035', symObjAddr: 0x75664, symBinAddr: 0x6D984, symSize: 0x120 }
  - { offset: 0x27B7AA, size: 0x8, addend: 0x0, symName: '__ZN66_$LT$alloc..borrow..Cow$LT$B$GT$$u20$as$u20$core..fmt..Display$GT$3fmt17h08c312ef7d562779E', symObjAddr: 0x74348, symBinAddr: 0x6C750, symSize: 0x10 }
  - { offset: 0x27BD2B, size: 0x8, addend: 0x0, symName: '__ZN87_$LT$T$u20$as$u20$alloc..slice..$LT$impl$u20$$u5b$T$u5d$$GT$..to_vec_in..ConvertVec$GT$6to_vec17h7a0433be88fa479dE', symObjAddr: 0x73E10, symBinAddr: 0x6C218, symSize: 0x8C }
  - { offset: 0x27F389, size: 0x8, addend: 0x0, symName: __ZN4pyo33err5PyErr4take17he29a73c18ed80b9aE, symObjAddr: 0x70924, symBinAddr: 0x694E4, symSize: 0x31C }
  - { offset: 0x2800E7, size: 0x8, addend: 0x0, symName: __ZN4pyo33err9err_state10PyErrState15make_normalized17h5fa7402a3042da1aE, symObjAddr: 0x70C40, symBinAddr: 0xAE384, symSize: 0x264 }
  - { offset: 0x280F84, size: 0x8, addend: 0x0, symName: '__ZN3std4sync9once_lock17OnceLock$LT$T$GT$10initialize17haad10518650ca678E', symObjAddr: 0x711CC, symBinAddr: 0xAE760, symSize: 0x40 }
  - { offset: 0x280FFD, size: 0x8, addend: 0x0, symName: '__ZN3std4sync9once_lock17OnceLock$LT$T$GT$10initialize17haad10518650ca678E', symObjAddr: 0x711CC, symBinAddr: 0xAE760, symSize: 0x40 }
  - { offset: 0x28101A, size: 0x8, addend: 0x0, symName: '__ZN3std4sync9once_lock17OnceLock$LT$T$GT$10initialize17haad10518650ca678E', symObjAddr: 0x711CC, symBinAddr: 0xAE760, symSize: 0x40 }
  - { offset: 0x28103D, size: 0x8, addend: 0x0, symName: '__ZN3std4sync9once_lock17OnceLock$LT$T$GT$10initialize17haad10518650ca678E', symObjAddr: 0x711CC, symBinAddr: 0xAE760, symSize: 0x40 }
  - { offset: 0x2812B1, size: 0x8, addend: 0x0, symName: '__ZN5alloc7raw_vec19RawVec$LT$T$C$A$GT$8grow_one17h903abe34c31d7216E', symObjAddr: 0x7120C, symBinAddr: 0x699B0, symSize: 0xBC }
  - { offset: 0x281841, size: 0x8, addend: 0x0, symName: __ZN4pyo38internal5state13ReferencePool24drop_deferred_references17h7bd07fdb58b67ff0E, symObjAddr: 0x71450, symBinAddr: 0x69B78, symSize: 0x1CC }
  - { offset: 0x2823C0, size: 0x8, addend: 0x0, symName: __ZN4pyo38internal5state11AttachGuard6attach17hb42f48049181d232E, symObjAddr: 0x719CC, symBinAddr: 0x6A0F4, symSize: 0xFC }
  - { offset: 0x282741, size: 0x8, addend: 0x0, symName: __ZN4pyo38internal5state11AttachGuard19do_attach_unchecked17h66456eeaabe1a462E, symObjAddr: 0x71D88, symBinAddr: 0xAE81C, symSize: 0x6C }
  - { offset: 0x2829C7, size: 0x8, addend: 0x0, symName: __ZN4pyo38internal5state15ForbidAttaching4bail17h40e21735df879ab7E, symObjAddr: 0x71EF4, symBinAddr: 0xAE888, symSize: 0x80 }
  - { offset: 0x282E34, size: 0x8, addend: 0x0, symName: __ZN4pyo33err9err_state10PyErrState10normalized17hb5e05fec5cee948eE, symObjAddr: 0x722B8, symBinAddr: 0x6A814, symSize: 0xB8 }
  - { offset: 0x282F06, size: 0x8, addend: 0x0, symName: __ZN4pyo33err5PyErr22print_panic_and_unwind17h6ca637e91555b0d9E, symObjAddr: 0x72370, symBinAddr: 0x6A8CC, symSize: 0x110 }
  - { offset: 0x2832F3, size: 0x8, addend: 0x0, symName: __ZN4pyo33err9err_state10PyErrState7restore17hc1749436d7028e34E, symObjAddr: 0x72480, symBinAddr: 0x6A9DC, symSize: 0xC0 }
  - { offset: 0x2835E8, size: 0x8, addend: 0x0, symName: '__ZN4pyo35types6string79_$LT$impl$u20$pyo3..instance..Borrowed$LT$pyo3..types..string..PyString$GT$$GT$15to_string_lossy17h41367bf49e6628b7E', symObjAddr: 0x7259C, symBinAddr: 0x6AAF8, symSize: 0x28C }
  - { offset: 0x283D8E, size: 0x8, addend: 0x0, symName: '__ZN9once_cell3imp17OnceCell$LT$T$GT$10initialize17he88b7250665b6bf2E', symObjAddr: 0x7287C, symBinAddr: 0xAE9E8, symSize: 0xB4 }
  - { offset: 0x284CFD, size: 0x8, addend: 0x0, symName: '__ZN4pyo35types6string79_$LT$impl$u20$pyo3..instance..Borrowed$LT$pyo3..types..string..PyString$GT$$GT$6to_str17h54c058b31a41d045E', symObjAddr: 0x73D10, symBinAddr: 0x6C118, symSize: 0x100 }
  - { offset: 0x2853E2, size: 0x8, addend: 0x0, symName: '__ZN9once_cell3imp17OnceCell$LT$T$GT$10initialize17h26504fa5132d5572E', symObjAddr: 0x74924, symBinAddr: 0xAEB3C, symSize: 0xAC }
  - { offset: 0x2866FD, size: 0x8, addend: 0x0, symName: __ZN4pyo33err5PyErr9set_cause17h6b38a2af32804013E, symObjAddr: 0x75EB4, symBinAddr: 0x6E0DC, symSize: 0x17C }
  - { offset: 0x286D58, size: 0x8, addend: 0x0, symName: __ZN4pyo35impl_16extract_argument19FunctionDescription27unexpected_keyword_argument17h26367ebac72f11b5E, symObjAddr: 0x7624C, symBinAddr: 0xAED1C, symSize: 0x194 }
  - { offset: 0x287328, size: 0x8, addend: 0x0, symName: __ZN4pyo35impl_16extract_argument19FunctionDescription28multiple_values_for_argument17hb320e2f76967d881E, symObjAddr: 0x763EC, symBinAddr: 0xAEEB0, symSize: 0x17C }
  - { offset: 0x2878A9, size: 0x8, addend: 0x0, symName: __ZN4pyo35impl_16extract_argument19FunctionDescription29too_many_positional_arguments17he9b5711920a17dc0E, symObjAddr: 0x76568, symBinAddr: 0xAF02C, symSize: 0x2CC }
  - { offset: 0x287FF7, size: 0x8, addend: 0x0, symName: __ZN4pyo35impl_16extract_argument19FunctionDescription33positional_only_keyword_arguments17h04d2a7b032cf4409E, symObjAddr: 0x76834, symBinAddr: 0xAF2F8, symSize: 0x1B0 }
  - { offset: 0x288AD1, size: 0x8, addend: 0x0, symName: __ZN4pyo35impl_16extract_argument19FunctionDescription34missing_required_keyword_arguments17h11448fc13fe383bfE, symObjAddr: 0x76CF8, symBinAddr: 0xAF4A8, symSize: 0x1DC }
  - { offset: 0x289366, size: 0x8, addend: 0x0, symName: __ZN4pyo35impl_16extract_argument19FunctionDescription26missing_required_arguments17h7f1ff12697884379E, symObjAddr: 0x76ED4, symBinAddr: 0xAF684, symSize: 0x1FC }
  - { offset: 0x289C9A, size: 0x8, addend: 0x0, symName: __ZN4pyo35impl_16extract_argument19FunctionDescription37missing_required_positional_arguments17heb5fcf87b6ecd5d2E, symObjAddr: 0x770D0, symBinAddr: 0xAF880, symSize: 0x1D0 }
  - { offset: 0x28B340, size: 0x8, addend: 0x0, symName: __ZN4pyo35impl_7pyclass16lazy_type_object19LazyTypeObjectInner15get_or_try_init17hb95c350dab33cac1E, symObjAddr: 0x777B8, symBinAddr: 0x6E898, symSize: 0x678 }
  - { offset: 0x28C4B9, size: 0x8, addend: 0x0, symName: '__ZN4pyo34sync20GILOnceCell$LT$T$GT$4init17h2459594bd09ff9a6E', symObjAddr: 0x77E30, symBinAddr: 0xAFE64, symSize: 0x14C }
  - { offset: 0x28C769, size: 0x8, addend: 0x0, symName: '__ZN5alloc7raw_vec19RawVec$LT$T$C$A$GT$8grow_one17hf4d3ac2f7f6a8facE', symObjAddr: 0x77FD0, symBinAddr: 0x6EF64, symSize: 0xB0 }
  - { offset: 0x28CC6D, size: 0x8, addend: 0x0, symName: '__ZN4pyo34sync20GILOnceCell$LT$T$GT$4init17hf1a2d686889e8d66E', symObjAddr: 0x78174, symBinAddr: 0xAFFB0, symSize: 0x37C }
  - { offset: 0x28D809, size: 0x8, addend: 0x0, symName: '__ZN5alloc7raw_vec19RawVec$LT$T$C$A$GT$8grow_one17hc11e12ae48f84978E', symObjAddr: 0x785EC, symBinAddr: 0x6F108, symSize: 0xB4 }
  - { offset: 0x28DF35, size: 0x8, addend: 0x0, symName: '__ZN9once_cell3imp17OnceCell$LT$T$GT$10initialize17h51794e1f241a3e61E', symObjAddr: 0x78E44, symBinAddr: 0xB0584, symSize: 0xE8 }
  - { offset: 0x28E45C, size: 0x8, addend: 0x0, symName: __ZN4pyo35panic14PanicException18from_panic_payload17ha5bf39f7f284690cE, symObjAddr: 0x7924C, symBinAddr: 0xB066C, symSize: 0x28C }
  - { offset: 0x292014, size: 0x8, addend: 0x0, symName: '__ZN5alloc7raw_vec19RawVec$LT$T$C$A$GT$8grow_one17h4a2c94eb6cf29143E', symObjAddr: 0x7BE38, symBinAddr: 0x72440, symSize: 0xB0 }
  - { offset: 0x2924EB, size: 0x8, addend: 0x0, symName: '__ZN5alloc7raw_vec19RawVec$LT$T$C$A$GT$8grow_one17hba62a567cee0c8a0E', symObjAddr: 0x7BFC4, symBinAddr: 0x725CC, symSize: 0xB8 }
  - { offset: 0x29309B, size: 0x8, addend: 0x0, symName: '__ZN9hashbrown3raw21RawTable$LT$T$C$A$GT$14reserve_rehash17he7fe8dad8061c67fE', symObjAddr: 0x7C07C, symBinAddr: 0xB093C, symSize: 0x4CC }
  - { offset: 0x294AF3, size: 0x8, addend: 0x0, symName: '__ZN5alloc7raw_vec19RawVec$LT$T$C$A$GT$8grow_one17hd22c88e4f33daac3E', symObjAddr: 0x7C548, symBinAddr: 0x72684, symSize: 0xB4 }
  - { offset: 0x295421, size: 0x8, addend: 0x0, symName: '__ZN5alloc7raw_vec19RawVec$LT$T$C$A$GT$8grow_one17hf23eb67c1ae248b5E', symObjAddr: 0x7D234, symBinAddr: 0x73370, symSize: 0xB0 }
  - { offset: 0x2E9DEE, size: 0x8, addend: 0x0, symName: '__ZN42_$LT$str$u20$as$u20$core..fmt..Display$GT$3fmt17h1e7192c885a6ee43E', symObjAddr: 0x60F18, symBinAddr: 0x5C258, symSize: 0x14 }
  - { offset: 0x2E9E5C, size: 0x8, addend: 0x0, symName: __ZN4core3fmt9Formatter12pad_integral17h6b76510de31552c4E, symObjAddr: 0x5FF90, symBinAddr: 0x5B438, symSize: 0x2A0 }
  - { offset: 0x2EA1A1, size: 0x8, addend: 0x0, symName: __ZN4core3fmt9Formatter3pad17hff1f0d89dcf14919E, symObjAddr: 0x60734, symBinAddr: 0x5BBA8, symSize: 0x304 }
  - { offset: 0x2EA4EB, size: 0x8, addend: 0x0, symName: __ZN4core3fmt9Formatter19pad_formatted_parts17h00acd4328f40f605E, symObjAddr: 0x61068, symBinAddr: 0x5C374, symSize: 0x23C }
  - { offset: 0x2EA787, size: 0x8, addend: 0x0, symName: __ZN4core3fmt9Formatter21write_formatted_parts17h77c3802a9fd0cb81E, symObjAddr: 0x612A4, symBinAddr: 0x5C5B0, symSize: 0x2A0 }
  - { offset: 0x2EA903, size: 0x8, addend: 0x0, symName: __ZN4core3fmt9Formatter10debug_list17hbc06b89459e82ed2E, symObjAddr: 0x65DB8, symBinAddr: 0x60F68, symSize: 0x44 }
  - { offset: 0x2EA942, size: 0x8, addend: 0x0, symName: __ZN4core3fmt9Formatter12debug_struct17hff016019e19a1e59E, symObjAddr: 0x65DFC, symBinAddr: 0x60FAC, symSize: 0x40 }
  - { offset: 0x2EA981, size: 0x8, addend: 0x0, symName: __ZN4core3fmt9Formatter25debug_tuple_field1_finish17hd754385b76890be0E, symObjAddr: 0x65E3C, symBinAddr: 0x60FEC, symSize: 0x134 }
  - { offset: 0x2EAB49, size: 0x8, addend: 0x0, symName: __ZN4core3fmt9Formatter25debug_tuple_field2_finish17hd192ca962f3e76f9E, symObjAddr: 0x65F70, symBinAddr: 0x61120, symSize: 0x1DC }
  - { offset: 0x2EAE42, size: 0x8, addend: 0x0, symName: __ZN4core3fmt9Formatter26debug_struct_field1_finish17hdf9e3e8cc9fad70bE, symObjAddr: 0x6614C, symBinAddr: 0x612FC, symSize: 0xD0 }
  - { offset: 0x2EAF18, size: 0x8, addend: 0x0, symName: __ZN4core3fmt9Formatter26debug_struct_field2_finish17h3b83c18c70479e53E, symObjAddr: 0x6621C, symBinAddr: 0x613CC, symSize: 0x104 }
  - { offset: 0x2EAFE8, size: 0x8, addend: 0x0, symName: __ZN4core3fmt9Formatter9write_str17hc566c39ab04e0b97E, symObjAddr: 0x66350, symBinAddr: 0x614DC, symSize: 0x10 }
  - { offset: 0x2EB07F, size: 0x8, addend: 0x0, symName: '__ZN40_$LT$str$u20$as$u20$core..fmt..Debug$GT$3fmt17h6237d1724b23f846E', symObjAddr: 0x5F40C, symBinAddr: 0x5A8FC, symSize: 0x380 }
  - { offset: 0x2EB5E1, size: 0x8, addend: 0x0, symName: '__ZN41_$LT$char$u20$as$u20$core..fmt..Debug$GT$3fmt17h59e0a889e40b0668E', symObjAddr: 0x5FCB8, symBinAddr: 0x5B160, symSize: 0xA8 }
  - { offset: 0x2EB74C, size: 0x8, addend: 0x0, symName: '__ZN4core3fmt3num3imp52_$LT$impl$u20$core..fmt..Display$u20$for$u20$u64$GT$3fmt17h14d52cab6e85bc6fE', symObjAddr: 0x64E8C, symBinAddr: 0x6003C, symSize: 0x13C }
  - { offset: 0x2EB86B, size: 0x8, addend: 0x0, symName: '__ZN4core3fmt3num3imp51_$LT$impl$u20$core..fmt..Display$u20$for$u20$u8$GT$3fmt17h96dad03e83fb5f48E', symObjAddr: 0x64A30, symBinAddr: 0x5FBE0, symSize: 0xB0 }
  - { offset: 0x2EB970, size: 0x8, addend: 0x0, symName: '__ZN4core3fmt3num3imp52_$LT$impl$u20$core..fmt..Display$u20$for$u20$i32$GT$3fmt17h52781b7f8b2f4a4fE', symObjAddr: 0x64AE0, symBinAddr: 0x5FC90, symSize: 0x138 }
  - { offset: 0x2EBA78, size: 0x8, addend: 0x0, symName: '__ZN4core3fmt3num3imp52_$LT$impl$u20$core..fmt..Display$u20$for$u20$i64$GT$3fmt17hc564f46f2e45128eE', symObjAddr: 0x64C18, symBinAddr: 0x5FDC8, symSize: 0x144 }
  - { offset: 0x2EBB80, size: 0x8, addend: 0x0, symName: '__ZN4core3fmt3num3imp52_$LT$impl$u20$core..fmt..Display$u20$for$u20$u32$GT$3fmt17h5beaee6a6019d596E', symObjAddr: 0x64D5C, symBinAddr: 0x5FF0C, symSize: 0x130 }
  - { offset: 0x2EBC86, size: 0x8, addend: 0x0, symName: '__ZN4core3fmt3num3imp54_$LT$impl$u20$core..fmt..Display$u20$for$u20$isize$GT$3fmt17hd258ed4fb22a67e0E', symObjAddr: 0x64FC8, symBinAddr: 0x60178, symSize: 0x144 }
  - { offset: 0x2EBD9B, size: 0x8, addend: 0x0, symName: '__ZN4core3fmt3num55_$LT$impl$u20$core..fmt..LowerHex$u20$for$u20$usize$GT$3fmt17hf7be342a5b4be171E', symObjAddr: 0x654C8, symBinAddr: 0x60678, symSize: 0x78 }
  - { offset: 0x2EBE2B, size: 0x8, addend: 0x0, symName: '__ZN4core3fmt3num55_$LT$impl$u20$core..fmt..UpperHex$u20$for$u20$usize$GT$3fmt17hbf7faef539eb3619E', symObjAddr: 0x655B8, symBinAddr: 0x60768, symSize: 0x78 }
  - { offset: 0x2EBEBB, size: 0x8, addend: 0x0, symName: '__ZN4core3fmt3num52_$LT$impl$u20$core..fmt..Debug$u20$for$u20$usize$GT$3fmt17hecd777b1c3510085E', symObjAddr: 0x5FDC0, symBinAddr: 0x5B268, symSize: 0x1D0 }
  - { offset: 0x2EC043, size: 0x8, addend: 0x0, symName: '__ZN4core3fmt3num53_$LT$impl$u20$core..fmt..LowerHex$u20$for$u20$u64$GT$3fmt17h79a829e8e24e1101E', symObjAddr: 0x652EC, symBinAddr: 0x6049C, symSize: 0x74 }
  - { offset: 0x2EC0D9, size: 0x8, addend: 0x0, symName: '__ZN4core3fmt3num52_$LT$impl$u20$core..fmt..LowerHex$u20$for$u20$u8$GT$3fmt17hb13fce475fc222b2E', symObjAddr: 0x6510C, symBinAddr: 0x602BC, symSize: 0x78 }
  - { offset: 0x2EC169, size: 0x8, addend: 0x0, symName: '__ZN4core3fmt3num52_$LT$impl$u20$core..fmt..UpperHex$u20$for$u20$u8$GT$3fmt17hb1de02a3a7bbd3c7E', symObjAddr: 0x65184, symBinAddr: 0x60334, symSize: 0x78 }
  - { offset: 0x2EC206, size: 0x8, addend: 0x0, symName: '__ZN4core3fmt3num53_$LT$impl$u20$core..fmt..LowerHex$u20$for$u20$u32$GT$3fmt17h7ee1256522b8815fE', symObjAddr: 0x65274, symBinAddr: 0x60424, symSize: 0x78 }
  - { offset: 0x2EC289, size: 0x8, addend: 0x0, symName: '__ZN4core3fmt3num53_$LT$impl$u20$core..fmt..LowerHex$u20$for$u20$i32$GT$3fmt17hdfae8c5dbc559eecE', symObjAddr: 0x651FC, symBinAddr: 0x603AC, symSize: 0x78 }
  - { offset: 0x2EC33B, size: 0x8, addend: 0x0, symName: '__ZN4core3fmt3num53_$LT$impl$u20$core..fmt..UpperHex$u20$for$u20$u32$GT$3fmt17hb34391e4c80e6b6fE', symObjAddr: 0x653D8, symBinAddr: 0x60588, symSize: 0x78 }
  - { offset: 0x2EC3BE, size: 0x8, addend: 0x0, symName: '__ZN4core3fmt3num53_$LT$impl$u20$core..fmt..UpperHex$u20$for$u20$i32$GT$3fmt17h723ababa892c8d1fE', symObjAddr: 0x65360, symBinAddr: 0x60510, symSize: 0x78 }
  - { offset: 0x2EC464, size: 0x8, addend: 0x0, symName: '__ZN4core3fmt3num55_$LT$impl$u20$core..fmt..LowerHex$u20$for$u20$isize$GT$3fmt17hea3716097582fe73E', symObjAddr: 0x65450, symBinAddr: 0x60600, symSize: 0x78 }
  - { offset: 0x2EC503, size: 0x8, addend: 0x0, symName: '__ZN4core3fmt3num55_$LT$impl$u20$core..fmt..UpperHex$u20$for$u20$isize$GT$3fmt17h8e4eca7d67111babE', symObjAddr: 0x65540, symBinAddr: 0x606F0, symSize: 0x78 }
  - { offset: 0x2EC64D, size: 0x8, addend: 0x0, symName: __ZN4core3fmt9Formatter12pad_integral12write_prefix17h1291243e63835aa1E, symObjAddr: 0x60684, symBinAddr: 0x5BB2C, symSize: 0x7C }
  - { offset: 0x2EC699, size: 0x8, addend: 0x0, symName: '__ZN43_$LT$bool$u20$as$u20$core..fmt..Display$GT$3fmt17hcc7f6f1cdbf70e76E', symObjAddr: 0x60F2C, symBinAddr: 0x5C26C, symSize: 0x34 }
  - { offset: 0x2EC6E5, size: 0x8, addend: 0x0, symName: '__ZN43_$LT$char$u20$as$u20$core..fmt..Display$GT$3fmt17hdbc7e490592ff55fE', symObjAddr: 0x60F60, symBinAddr: 0x5C2A0, symSize: 0xD4 }
  - { offset: 0x2EC75A, size: 0x8, addend: 0x0, symName: '__ZN59_$LT$core..fmt..Arguments$u20$as$u20$core..fmt..Display$GT$3fmt17hd8696728533e2ff8E', symObjAddr: 0x61CCC, symBinAddr: 0x5CE7C, symSize: 0xC }
  - { offset: 0x2EC77B, size: 0x8, addend: 0x0, symName: '__ZN42_$LT$$RF$T$u20$as$u20$core..fmt..Debug$GT$3fmt17h64c69660141ac234E', symObjAddr: 0x61CD8, symBinAddr: 0x5CE88, symSize: 0x10 }
  - { offset: 0x2EC795, size: 0x8, addend: 0x0, symName: '__ZN42_$LT$$RF$T$u20$as$u20$core..fmt..Debug$GT$3fmt17h94db8d2ef512e5afE', symObjAddr: 0x61ED0, symBinAddr: 0x5D080, symSize: 0x1DC }
  - { offset: 0x2EC90F, size: 0x8, addend: 0x0, symName: '__ZN42_$LT$$RF$T$u20$as$u20$core..fmt..Debug$GT$3fmt17h69565c29f92b8fc4E', symObjAddr: 0x66344, symBinAddr: 0x614D0, symSize: 0xC }
  - { offset: 0x2EC97A, size: 0x8, addend: 0x0, symName: __ZN4core3fmt5write17h2ddadfca81aeb692E, symObjAddr: 0x61CE8, symBinAddr: 0x5CE98, symSize: 0x1E8 }
  - { offset: 0x2ECB3F, size: 0x8, addend: 0x0, symName: __ZN4core3fmt5float29float_to_decimal_common_exact17h8f768e0291d7d671E, symObjAddr: 0x623BC, symBinAddr: 0x5D56C, symSize: 0x10D4 }
  - { offset: 0x2EE320, size: 0x8, addend: 0x0, symName: __ZN4core3fmt5float32float_to_decimal_common_shortest17h48d7cc6368b2ff41E, symObjAddr: 0x63490, symBinAddr: 0x5E640, symSize: 0x122C }
  - { offset: 0x2EFE86, size: 0x8, addend: 0x0, symName: '__ZN4core3fmt5float52_$LT$impl$u20$core..fmt..Display$u20$for$u20$f64$GT$3fmt17h233df897a8cc50caE', symObjAddr: 0x65630, symBinAddr: 0x607E0, symSize: 0x2C }
  - { offset: 0x2EFEEA, size: 0x8, addend: 0x0, symName: '__ZN68_$LT$core..fmt..builders..PadAdapter$u20$as$u20$core..fmt..Write$GT$9write_str17hc88595c259955ac6E', symObjAddr: 0x6565C, symBinAddr: 0x6080C, symSize: 0x238 }
  - { offset: 0x2F0147, size: 0x8, addend: 0x0, symName: '__ZN68_$LT$core..fmt..builders..PadAdapter$u20$as$u20$core..fmt..Write$GT$10write_char17h26ddfb0e18c0d503E', symObjAddr: 0x65894, symBinAddr: 0x60A44, symSize: 0x80 }
  - { offset: 0x2F0234, size: 0x8, addend: 0x0, symName: __ZN4core3fmt8builders11DebugStruct21finish_non_exhaustive17had30d55d76235194E, symObjAddr: 0x65930, symBinAddr: 0x60AE0, symSize: 0xC4 }
  - { offset: 0x2F0364, size: 0x8, addend: 0x0, symName: __ZN4core3fmt8builders11DebugStruct5field17h207d6e7a951e3da0E, symObjAddr: 0x659F4, symBinAddr: 0x60BA4, symSize: 0x1B4 }
  - { offset: 0x2F056F, size: 0x8, addend: 0x0, symName: __ZN4core3fmt8builders11DebugStruct6finish17h09aadd2fc45d6189E, symObjAddr: 0x65BA8, symBinAddr: 0x60D58, symSize: 0x7C }
  - { offset: 0x2F067B, size: 0x8, addend: 0x0, symName: __ZN4core3fmt8builders9DebugList5entry17h3c6adc977764036eE, symObjAddr: 0x65C24, symBinAddr: 0x60DD4, symSize: 0x148 }
  - { offset: 0x2F07F8, size: 0x8, addend: 0x0, symName: __ZN4core3fmt8builders9DebugList6finish17h1e2c90a4f4b268bbE, symObjAddr: 0x65D6C, symBinAddr: 0x60F1C, symSize: 0x4C }
  - { offset: 0x2F091E, size: 0x8, addend: 0x0, symName: __ZN4core3fmt5Write9write_fmt17h335a5c637617de5aE, symObjAddr: 0x65914, symBinAddr: 0x60AC4, symSize: 0x1C }
  - { offset: 0x2F0B9D, size: 0x8, addend: 0x0, symName: __ZN4core5slice6memchr14memchr_aligned17h0fd76980ccaa34afE, symObjAddr: 0x67D14, symBinAddr: 0x62E18, symSize: 0xD8 }
  - { offset: 0x2F0BC1, size: 0x8, addend: 0x0, symName: __ZN4core5slice6memchr14memchr_aligned17h0fd76980ccaa34afE, symObjAddr: 0x67D14, symBinAddr: 0x62E18, symSize: 0xD8 }
  - { offset: 0x2F0BD5, size: 0x8, addend: 0x0, symName: __ZN4core5slice6memchr14memchr_aligned17h0fd76980ccaa34afE, symObjAddr: 0x67D14, symBinAddr: 0x62E18, symSize: 0xD8 }
  - { offset: 0x2F0BEA, size: 0x8, addend: 0x0, symName: __ZN4core5slice6memchr14memchr_aligned17h0fd76980ccaa34afE, symObjAddr: 0x67D14, symBinAddr: 0x62E18, symSize: 0xD8 }
  - { offset: 0x2F13CC, size: 0x8, addend: 0x0, symName: __ZN4core5slice5index16slice_index_fail8do_panic7runtime17hc3cb4cb0f63d7a0dE, symObjAddr: 0x60E28, symBinAddr: 0xABB14, symSize: 0x50 }
  - { offset: 0x2F13FD, size: 0x8, addend: 0x0, symName: __ZN4core5slice5index16slice_index_fail8do_panic7runtime17hdb76a588098e04d1E, symObjAddr: 0x60E78, symBinAddr: 0xABB64, symSize: 0x50 }
  - { offset: 0x2F142E, size: 0x8, addend: 0x0, symName: __ZN4core5slice5index16slice_index_fail8do_panic7runtime17h264a8ffb4962c84aE, symObjAddr: 0x60EC8, symBinAddr: 0xABBB4, symSize: 0x50 }
  - { offset: 0x2F1461, size: 0x8, addend: 0x0, symName: __ZN4core5slice5index16slice_index_fail17hcba6beb3c7e54df7E, symObjAddr: 0x60DE4, symBinAddr: 0xABAD0, symSize: 0x44 }
  - { offset: 0x2F16B4, size: 0x8, addend: 0x0, symName: __ZN4core5slice4sort6shared9smallsort22panic_on_ord_violation17haee08cae494f9b76E, symObjAddr: 0x67CB0, symBinAddr: 0xABE08, symSize: 0x38 }
  - { offset: 0x2F16F0, size: 0x8, addend: 0x0, symName: __ZN4core5slice4sort6stable5drift11sqrt_approx17h4d80f437b4f05e96E, symObjAddr: 0x67CE8, symBinAddr: 0x62DEC, symSize: 0x2C }
  - { offset: 0x2F191C, size: 0x8, addend: 0x0, symName: __ZN4core3str16slice_error_fail17h525eecae2eaa107fE, symObjAddr: 0x5FA10, symBinAddr: 0xABA54, symSize: 0xC }
  - { offset: 0x2F1936, size: 0x8, addend: 0x0, symName: __ZN4core3str19slice_error_fail_rt17hb42e3abad203a6cdE, symObjAddr: 0x5FA1C, symBinAddr: 0x5AF00, symSize: 0x260 }
  - { offset: 0x2F1AA0, size: 0x8, addend: 0x0, symName: __ZN4core3str5count14do_count_chars17h843327bbee0854c3E, symObjAddr: 0x60230, symBinAddr: 0x5B6D8, symSize: 0x454 }
  - { offset: 0x2F1E4B, size: 0x8, addend: 0x0, symName: __ZN4core3str8converts9from_utf817h919d4dab8ff84af4E, symObjAddr: 0x647BC, symBinAddr: 0x5F96C, symSize: 0x274 }
  - { offset: 0x2F1E68, size: 0x8, addend: 0x0, symName: __ZN4core3str8converts9from_utf817h919d4dab8ff84af4E, symObjAddr: 0x647BC, symBinAddr: 0x5F96C, symSize: 0x274 }
  - { offset: 0x2F1F6A, size: 0x8, addend: 0x0, symName: __ZN4core3str7pattern11StrSearcher3new17h08afc4e4b23bec43E, symObjAddr: 0x67554, symBinAddr: 0x626E0, symSize: 0x6F8 }
  - { offset: 0x2F21E2, size: 0x8, addend: 0x0, symName: '__ZN87_$LT$core..str..lossy..Utf8Chunks$u20$as$u20$core..iter..traits..iterator..Iterator$GT$4next17h95aaa406218940b3E', symObjAddr: 0x67FE0, symBinAddr: 0x62EF0, symSize: 0x1C0 }
  - { offset: 0x2F24B7, size: 0x8, addend: 0x0, symName: '__ZN4core4char7methods22_$LT$impl$u20$char$GT$16escape_debug_ext17h65363754973cca06E', symObjAddr: 0x5F78C, symBinAddr: 0x5AC7C, symSize: 0x284 }
  - { offset: 0x2F26DF, size: 0x8, addend: 0x0, symName: __ZN4core7unicode12unicode_data15grapheme_extend11lookup_slow17h7cfd3b15da7724b7E, symObjAddr: 0x60CDC, symBinAddr: 0x5C150, symSize: 0x108 }
  - { offset: 0x2F28B0, size: 0x8, addend: 0x0, symName: __ZN4core7unicode9printable12is_printable17h2705576d9a4eb781E, symObjAddr: 0x60A38, symBinAddr: 0x5BEAC, symSize: 0x2A4 }
  - { offset: 0x2F2E12, size: 0x8, addend: 0x0, symName: __ZN4core3num6bignum8Big32x408mul_pow217h85dba08383916ff6E, symObjAddr: 0x61544, symBinAddr: 0x5C850, symSize: 0x268 }
  - { offset: 0x2F2EDE, size: 0x8, addend: 0x0, symName: __ZN4core3num6bignum8Big32x4010mul_digits17hf50cf644a1a3f5d2E, symObjAddr: 0x619DC, symBinAddr: 0x5CC98, symSize: 0x1E4 }
  - { offset: 0x2F31CC, size: 0x8, addend: 0x0, symName: __ZN4core3num7flt2dec8strategy6dragon9mul_pow1017h1e2c314bfe8c30dbE, symObjAddr: 0x617AC, symBinAddr: 0x5CAB8, symSize: 0x1E0 }
  - { offset: 0x2F34CA, size: 0x8, addend: 0x0, symName: __ZN4core3num7flt2dec8strategy5grisu16format_exact_opt14possibly_round17hff1edd4eb7cf503dE, symObjAddr: 0x621D4, symBinAddr: 0x5D384, symSize: 0x1E8 }
  - { offset: 0x2F37A3, size: 0x8, addend: 0x0, symName: __ZN4core3num7flt2dec17digits_to_dec_str17hc0be7a59d8ec182bE, symObjAddr: 0x620AC, symBinAddr: 0x5D25C, symSize: 0x128 }
  - { offset: 0x2F3932, size: 0x8, addend: 0x0, symName: __ZN4core3num7dec2flt11decimal_seq10DecimalSeq10left_shift17h48f0a14e63692f02E, symObjAddr: 0x66360, symBinAddr: 0x614EC, symSize: 0x208 }
  - { offset: 0x2F39D6, size: 0x8, addend: 0x0, symName: __ZN4core3num7dec2flt11decimal_seq10DecimalSeq11right_shift17h8261407bce92c92dE, symObjAddr: 0x66568, symBinAddr: 0x616F4, symSize: 0x1C0 }
  - { offset: 0x2F39FC, size: 0x8, addend: 0x0, symName: __ZN4core3num7dec2flt11decimal_seq10DecimalSeq5round17ha07e305a28b94d9dE, symObjAddr: 0x66728, symBinAddr: 0x618B4, symSize: 0xB4 }
  - { offset: 0x2F3C3A, size: 0x8, addend: 0x0, symName: '__ZN4core3num7dec2flt60_$LT$impl$u20$core..str..traits..FromStr$u20$for$u20$f64$GT$8from_str17hde18f05d3519c325E', symObjAddr: 0x667DC, symBinAddr: 0x61968, symSize: 0xC2C }
  - { offset: 0x2F4736, size: 0x8, addend: 0x0, symName: __ZN4core3num7dec2flt6lemire13compute_float17hd09d382dccf7edecE, symObjAddr: 0x67408, symBinAddr: 0x62594, symSize: 0x14C }
  - { offset: 0x2F4A5D, size: 0x8, addend: 0x0, symName: '__ZN72_$LT$core..num..error..TryFromIntError$u20$as$u20$core..fmt..Display$GT$3fmt17h393669a86eaa428bE', symObjAddr: 0x681A0, symBinAddr: 0x630B0, symSize: 0x10 }
  - { offset: 0x2F4A7B, size: 0x8, addend: 0x0, symName: '__ZN72_$LT$core..num..error..TryFromIntError$u20$as$u20$core..fmt..Display$GT$3fmt17h393669a86eaa428bE', symObjAddr: 0x681A0, symBinAddr: 0x630B0, symSize: 0x10 }
  - { offset: 0x2F4B0B, size: 0x8, addend: 0x0, symName: __ZN4core6option13unwrap_failed17h5390b8bf3624dae4E, symObjAddr: 0x5FC9C, symBinAddr: 0xABA80, symSize: 0x1C }
  - { offset: 0x2F4B26, size: 0x8, addend: 0x0, symName: __ZN4core6option13expect_failed17ha7eb9005b8b6a5f0E, symObjAddr: 0x67DEC, symBinAddr: 0xABE40, symSize: 0x48 }
  - { offset: 0x2F4BA0, size: 0x8, addend: 0x0, symName: __ZN4core9panicking9panic_fmt17h96de7a67cc512650E, symObjAddr: 0x5FC7C, symBinAddr: 0xABA60, symSize: 0x20 }
  - { offset: 0x2F4BCF, size: 0x8, addend: 0x0, symName: __ZN4core9panicking5panic17hb13a99a9a5205e75E, symObjAddr: 0x60700, symBinAddr: 0xABA9C, symSize: 0x34 }
  - { offset: 0x2F4C03, size: 0x8, addend: 0x0, symName: __ZN4core9panicking11panic_const23panic_const_div_by_zero17h4bab502c4a7f6f5bE, symObjAddr: 0x61034, symBinAddr: 0xABC04, symSize: 0x34 }
  - { offset: 0x2F4C32, size: 0x8, addend: 0x0, symName: __ZN4core9panicking11panic_const23panic_const_rem_by_zero17h6c478c7599da4a96E, symObjAddr: 0x67E90, symBinAddr: 0xABEE4, symSize: 0x34 }
  - { offset: 0x2F4C61, size: 0x8, addend: 0x0, symName: __ZN4core9panicking11panic_const24panic_const_rem_overflow17h89c517799d5fc23fE, symObjAddr: 0x67EC4, symBinAddr: 0xABF18, symSize: 0x38 }
  - { offset: 0x2F4C92, size: 0x8, addend: 0x0, symName: __ZN4core9panicking18panic_bounds_check17h8935b4e0a545757eE, symObjAddr: 0x6198C, symBinAddr: 0xABC38, symSize: 0x50 }
  - { offset: 0x2F4CC4, size: 0x8, addend: 0x0, symName: __ZN4core9panicking13assert_failed17h420d4be177614dd0E, symObjAddr: 0x61BC0, symBinAddr: 0xABC88, symSize: 0x28 }
  - { offset: 0x2F4CE0, size: 0x8, addend: 0x0, symName: __ZN4core9panicking19assert_failed_inner17h13db5798706a154aE, symObjAddr: 0x61BE8, symBinAddr: 0xABCB0, symSize: 0xE4 }
  - { offset: 0x2F4D28, size: 0x8, addend: 0x0, symName: __ZN4core9panicking13assert_failed17hcd10705fda4a35e5E, symObjAddr: 0x66320, symBinAddr: 0xABD94, symSize: 0x24 }
  - { offset: 0x2F4D52, size: 0x8, addend: 0x0, symName: __ZN4core9panicking14panic_nounwind17h50f882120c826ceeE, symObjAddr: 0x67EFC, symBinAddr: 0xABF50, symSize: 0x48 }
  - { offset: 0x2F4D96, size: 0x8, addend: 0x0, symName: __ZN4core9panicking18panic_nounwind_fmt17h3db3f511675e5bd7E, symObjAddr: 0x67F44, symBinAddr: 0xABF98, symSize: 0x3C }
  - { offset: 0x2F4DDB, size: 0x8, addend: 0x0, symName: __ZN4core9panicking19panic_cannot_unwind17h396781a6699a759fE, symObjAddr: 0x67F80, symBinAddr: 0xABFD4, symSize: 0xC }
  - { offset: 0x2F4DF6, size: 0x8, addend: 0x0, symName: __ZN4core9panicking16panic_in_cleanup17h8699c7095cf5e6c5E, symObjAddr: 0x67F8C, symBinAddr: 0xABFE0, symSize: 0xC }
  - { offset: 0x2F4E11, size: 0x8, addend: 0x0, symName: __ZN4core9panicking26panic_nounwind_nobacktrace17h779196fb6afb7816E, symObjAddr: 0x67F98, symBinAddr: 0xABFEC, symSize: 0x48 }
  - { offset: 0x2F4F6B, size: 0x8, addend: 0x0, symName: __ZN4core6result13unwrap_failed17h6d77827dc3df0d45E, symObjAddr: 0x67E34, symBinAddr: 0xABE88, symSize: 0x5C }
  - { offset: 0x2F4FAC, size: 0x8, addend: 0x0, symName: '__ZN71_$LT$core..ops..range..Range$LT$Idx$GT$$u20$as$u20$core..fmt..Debug$GT$3fmt17h9ee395a326b5a38dE', symObjAddr: 0x5FD60, symBinAddr: 0x5B208, symSize: 0x60 }
  - { offset: 0x2F5755, size: 0x8, addend: 0x0, symName: __ZN4core3ffi5c_str4CStr19from_bytes_with_nul17h949d50f69b18d62aE, symObjAddr: 0x646BC, symBinAddr: 0x5F86C, symSize: 0xF8 }
  - { offset: 0x2F5843, size: 0x8, addend: 0x0, symName: __ZN4core3ffi5c_str4CStr6to_str17h5af23d7a1eca661dE, symObjAddr: 0x647B4, symBinAddr: 0x5F964, symSize: 0x8 }
  - { offset: 0x2F5861, size: 0x8, addend: 0x0, symName: __ZN4core3ffi5c_str4CStr6to_str17h5af23d7a1eca661dE, symObjAddr: 0x647B4, symBinAddr: 0x5F964, symSize: 0x8 }
  - { offset: 0x2F58B5, size: 0x8, addend: 0x0, symName: __ZN4core4cell22panic_already_borrowed8do_panic7runtime17hb049e5e6e3009115E, symObjAddr: 0x67C58, symBinAddr: 0xABDC4, symSize: 0x44 }
  - { offset: 0x2F58E8, size: 0x8, addend: 0x0, symName: __ZN4core4cell22panic_already_borrowed17h2b3e251322659aa8E, symObjAddr: 0x67C4C, symBinAddr: 0xABDB8, symSize: 0xC }
  - { offset: 0x2F591D, size: 0x8, addend: 0x0, symName: '__ZN65_$LT$core..cell..BorrowMutError$u20$as$u20$core..fmt..Display$GT$3fmt17h88d30539f104455aE', symObjAddr: 0x67C9C, symBinAddr: 0x62DD8, symSize: 0x14 }
  - { offset: 0x2F5951, size: 0x8, addend: 0x0, symName: _OUTLINED_FUNCTION_13, symObjAddr: 0xB6214, symBinAddr: 0xA64B0, symSize: 0x14 }
  - { offset: 0x2A286A, size: 0x8, addend: 0x0, symName: '__ZN62_$LT$rand_core..error..Error$u20$as$u20$core..fmt..Display$GT$3fmt17hd35ae43b7bb45727E', symObjAddr: 0x7ED64, symBinAddr: 0x74BFC, symSize: 0x4C }
  - { offset: 0x2A3103, size: 0x8, addend: 0x0, symName: __ZN4core5error5Error7type_id17ha1c41ab6cd903aeaE, symObjAddr: 0x7EDC0, symBinAddr: 0x74C58, symSize: 0x14 }
  - { offset: 0x2A3136, size: 0x8, addend: 0x0, symName: __ZN4core5error5Error7type_id17ha1c41ab6cd903aeaE, symObjAddr: 0x7EDC0, symBinAddr: 0x74C58, symSize: 0x14 }
  - { offset: 0x2A3151, size: 0x8, addend: 0x0, symName: __ZN4core5error5Error11description17hcc080775f17ff477E, symObjAddr: 0x7EDD4, symBinAddr: 0x74C6C, symSize: 0x10 }
  - { offset: 0x2A3184, size: 0x8, addend: 0x0, symName: __ZN4core5error5Error5cause17h4b0825a010c70d84E, symObjAddr: 0x7EDE4, symBinAddr: 0x74C7C, symSize: 0x8 }
  - { offset: 0x2A31B7, size: 0x8, addend: 0x0, symName: __ZN4core5error5Error7provide17hf3bd00c2fb5f51c7E, symObjAddr: 0x7EDEC, symBinAddr: 0x74C84, symSize: 0x4 }
  - { offset: 0x2A3287, size: 0x8, addend: 0x0, symName: '__ZN62_$LT$rand_core..error..Error$u20$as$u20$core..fmt..Display$GT$3fmt17hd35ae43b7bb45727E', symObjAddr: 0x7ED64, symBinAddr: 0x74BFC, symSize: 0x4C }
  - { offset: 0x2A347B, size: 0x8, addend: 0x0, symName: '__ZN69_$LT$alloc..boxed..Box$LT$T$C$A$GT$$u20$as$u20$core..fmt..Display$GT$3fmt17hb25ad64f46e437c9E', symObjAddr: 0x7EDB0, symBinAddr: 0x74C48, symSize: 0x10 }
  - { offset: 0x210479, size: 0x8, addend: 0x0, symName: '__ZN63_$LT$ndarray..error..ShapeError$u20$as$u20$core..fmt..Debug$GT$3fmt17h0751e21bcac3a571E', symObjAddr: 0x6A6E0, symBinAddr: 0x65054, symSize: 0x50 }
  - { offset: 0x210496, size: 0x8, addend: 0x0, symName: '__ZN63_$LT$ndarray..error..ShapeError$u20$as$u20$core..fmt..Debug$GT$3fmt17h0751e21bcac3a571E', symObjAddr: 0x6A6E0, symBinAddr: 0x65054, symSize: 0x50 }
  - { offset: 0x210571, size: 0x8, addend: 0x0, symName: '__ZN62_$LT$ndarray..error..ErrorKind$u20$as$u20$core..fmt..Debug$GT$3fmt17h255d9c77d1377013E', symObjAddr: 0x6A7C4, symBinAddr: 0x65138, symSize: 0x34 }
  - { offset: 0x2106FD, size: 0x8, addend: 0x0, symName: __ZN7ndarray11arraytraits19array_out_of_bounds17h4ab68dc1e983dee3E, symObjAddr: 0x6A7F8, symBinAddr: 0xAC5D0, symSize: 0x38 }
  - { offset: 0x2110BE, size: 0x8, addend: 0x0, symName: '__ZN44_$LT$$RF$T$u20$as$u20$core..fmt..Display$GT$3fmt17h3a95e7afbf7a59a5E', symObjAddr: 0x6A730, symBinAddr: 0x650A4, symSize: 0x94 }
  - { offset: 0x2E76D3, size: 0x8, addend: 0x0, symName: __ZN5alloc7raw_vec12handle_error17hda5280d2e54fe328E, symObjAddr: 0x5E6E8, symBinAddr: 0xAB8E4, symSize: 0x18 }
  - { offset: 0x2E7716, size: 0x8, addend: 0x0, symName: __ZN5alloc7raw_vec12handle_error17hda5280d2e54fe328E, symObjAddr: 0x5E6E8, symBinAddr: 0xAB8E4, symSize: 0x18 }
  - { offset: 0x2E7755, size: 0x8, addend: 0x0, symName: __ZN5alloc7raw_vec17capacity_overflow17h17d905a29a8903c6E, symObjAddr: 0x5E718, symBinAddr: 0xAB914, symSize: 0x34 }
  - { offset: 0x2E79A0, size: 0x8, addend: 0x0, symName: '__ZN5alloc7raw_vec19RawVec$LT$T$C$A$GT$8grow_one17h7723fe5af437e4f2E', symObjAddr: 0x5EF98, symBinAddr: 0x5A488, symSize: 0x9C }
  - { offset: 0x2E7B02, size: 0x8, addend: 0x0, symName: '__ZN5alloc7raw_vec20RawVecInner$LT$A$GT$7reserve21do_reserve_and_handle17h11d004b711ee78ceE', symObjAddr: 0x5E99C, symBinAddr: 0xAB948, symSize: 0xA8 }
  - { offset: 0x2E7C4C, size: 0x8, addend: 0x0, symName: __ZN5alloc7raw_vec11finish_grow17hae2a77561b3eba9fE, symObjAddr: 0x5EA44, symBinAddr: 0xAB9F0, symSize: 0x64 }
  - { offset: 0x2E7CDC, size: 0x8, addend: 0x0, symName: __ZN5alloc5alloc18handle_alloc_error17h26baa107ca8d7d87E, symObjAddr: 0x5E700, symBinAddr: 0xAB8FC, symSize: 0x18 }
  - { offset: 0x2E7F9A, size: 0x8, addend: 0x0, symName: __ZN5alloc6string6String15from_utf8_lossy17h3827377ec6f44505E, symObjAddr: 0x5E76C, symBinAddr: 0x59D68, symSize: 0x230 }
  - { offset: 0x2E855F, size: 0x8, addend: 0x0, symName: '__ZN58_$LT$alloc..string..String$u20$as$u20$core..fmt..Write$GT$9write_str17h4f289a0bc5411d70E', symObjAddr: 0x5EDEC, symBinAddr: 0x5A2DC, symSize: 0x78 }
  - { offset: 0x2E86B1, size: 0x8, addend: 0x0, symName: '__ZN58_$LT$alloc..string..String$u20$as$u20$core..fmt..Write$GT$10write_char17hf5eb0556627f32e1E', symObjAddr: 0x5EE64, symBinAddr: 0x5A354, symSize: 0x118 }
  - { offset: 0x2E8857, size: 0x8, addend: 0x0, symName: '__ZN60_$LT$alloc..string..String$u20$as$u20$core..clone..Clone$GT$5clone17hf3eba48bbff74653E', symObjAddr: 0x5F034, symBinAddr: 0x5A524, symSize: 0x80 }
  - { offset: 0x2E89DB, size: 0x8, addend: 0x0, symName: '__ZN98_$LT$alloc..string..String$u20$as$u20$core..convert..From$LT$alloc..borrow..Cow$LT$str$GT$$GT$$GT$4from17h5469e7f25801e42aE', symObjAddr: 0x5F368, symBinAddr: 0x5A858, symSize: 0xA4 }
  - { offset: 0x2E8BB8, size: 0x8, addend: 0x0, symName: '__ZN254_$LT$alloc..boxed..convert..$LT$impl$u20$core..convert..From$LT$alloc..string..String$GT$$u20$for$u20$alloc..boxed..Box$LT$dyn$u20$core..error..Error$u2b$core..marker..Sync$u2b$core..marker..Send$GT$$GT$..from..StringError$u20$as$u20$core..fmt..Debug$GT$3fmt17h75dec14bca657cd7E', symObjAddr: 0x5E74C, symBinAddr: 0x59D48, symSize: 0x10 }
  - { offset: 0x2E8C89, size: 0x8, addend: 0x0, symName: '__ZN256_$LT$alloc..boxed..convert..$LT$impl$u20$core..convert..From$LT$alloc..string..String$GT$$u20$for$u20$alloc..boxed..Box$LT$dyn$u20$core..error..Error$u2b$core..marker..Sync$u2b$core..marker..Send$GT$$GT$..from..StringError$u20$as$u20$core..fmt..Display$GT$3fmt17h47fcec3434e746beE', symObjAddr: 0x5E75C, symBinAddr: 0x59D58, symSize: 0x10 }
  - { offset: 0x2E8D7D, size: 0x8, addend: 0x0, symName: __ZN5alloc3ffi5c_str7CString19_from_vec_unchecked17ha9e4236e455233d9E, symObjAddr: 0x5EAA8, symBinAddr: 0x59F98, symSize: 0x12C }
  - { offset: 0x2E9026, size: 0x8, addend: 0x0, symName: '__ZN66_$LT$alloc..ffi..c_str..NulError$u20$as$u20$core..fmt..Display$GT$3fmt17h0cba559c49b66469E', symObjAddr: 0x5F0B4, symBinAddr: 0x5A5A4, symSize: 0x50 }
  - { offset: 0x2E909F, size: 0x8, addend: 0x0, symName: '__ZN72_$LT$$RF$str$u20$as$u20$alloc..ffi..c_str..CString..new..SpecNewImpl$GT$13spec_new_impl17h45e6a9b6841b9026E', symObjAddr: 0x5F104, symBinAddr: 0x5A5F4, symSize: 0x110 }
  - { offset: 0x2E9292, size: 0x8, addend: 0x0, symName: '__ZN81_$LT$$RF$$u5b$u8$u5d$$u20$as$u20$alloc..ffi..c_str..CString..new..SpecNewImpl$GT$13spec_new_impl17h47b89b807a25caeaE', symObjAddr: 0x5F214, symBinAddr: 0x5A704, symSize: 0x154 }
  - { offset: 0x2E9533, size: 0x8, addend: 0x0, symName: __ZN5alloc3fmt6format12format_inner17h0dad41b42c4e8ea8E, symObjAddr: 0x5EBD4, symBinAddr: 0x5A0C4, symSize: 0x1E8 }
  - { offset: 0x2E9904, size: 0x8, addend: 0x0, symName: __ZN4core3fmt5Write9write_fmt17h4804216ef2799c76E, symObjAddr: 0x5EF7C, symBinAddr: 0x5A46C, symSize: 0x1C }
  - { offset: 0x2E9964, size: 0x8, addend: 0x0, symName: '__ZN53_$LT$core..fmt..Error$u20$as$u20$core..fmt..Debug$GT$3fmt17h2c60f2117c688a19E', symObjAddr: 0x5EDBC, symBinAddr: 0x5A2AC, symSize: 0x18 }
  - { offset: 0x2E9981, size: 0x8, addend: 0x0, symName: '__ZN53_$LT$core..fmt..Error$u20$as$u20$core..fmt..Debug$GT$3fmt17h2c60f2117c688a19E', symObjAddr: 0x5EDBC, symBinAddr: 0x5A2AC, symSize: 0x18 }
  - { offset: 0x2E9B55, size: 0x8, addend: 0x0, symName: '__ZN4core3ptr42drop_in_place$LT$alloc..string..String$GT$17h125e75c66c8dab73E', symObjAddr: 0x5EDD4, symBinAddr: 0x5A2C4, symSize: 0x18 }
  - { offset: 0x295FD0, size: 0x8, addend: 0x0, symName: '__ZN3std3sys12thread_local6native4lazy20Storage$LT$T$C$D$GT$16get_or_init_slow17hbc7f165f4c8b2701E', symObjAddr: 0x7D74C, symBinAddr: 0xB0E08, symSize: 0x200 }
  - { offset: 0x296190, size: 0x8, addend: 0x0, symName: __ZN3std3sys12thread_local6native4lazy7destroy17h35c98fba350448ddE, symObjAddr: 0x7D9F0, symBinAddr: 0x73888, symSize: 0x34 }
  - { offset: 0x2961E6, size: 0x8, addend: 0x0, symName: __ZN3std3sys12thread_local6native4lazy7destroy17h35c98fba350448ddE, symObjAddr: 0x7D9F0, symBinAddr: 0x73888, symSize: 0x34 }
  - { offset: 0x296209, size: 0x8, addend: 0x0, symName: __ZN3std3sys12thread_local6native4lazy7destroy17h35c98fba350448ddE, symObjAddr: 0x7D9F0, symBinAddr: 0x73888, symSize: 0x34 }
  - { offset: 0x296438, size: 0x8, addend: 0x0, symName: '__ZN3std4sync6poison4once4Once9call_once28_$u7b$$u7b$closure$u7d$$u7d$17h4b518e8bde218940E', symObjAddr: 0x7DAD8, symBinAddr: 0x73970, symSize: 0x90 }
  - { offset: 0x297601, size: 0x8, addend: 0x0, symName: '__ZN4core3ops8function6FnOnce40call_once$u7b$$u7b$vtable.shim$u7d$$u7d$17ha14f644d23e41b1cE', symObjAddr: 0x7DA48, symBinAddr: 0x738E0, symSize: 0x90 }
  - { offset: 0x297EB6, size: 0x8, addend: 0x0, symName: __ZN4rand4rngs7adapter9reseeding4fork21register_fork_handler8REGISTER17he19b0e3b2591e9f2E, symObjAddr: 0xD6EB0, symBinAddr: 0xF85B8, symSize: 0x0 }
  - { offset: 0x297F07, size: 0x8, addend: 0x0, symName: __ZN4rand4rngs7adapter9reseeding4fork26RESEEDING_RNG_FORK_COUNTER17hc52d1075326ec9d9E, symObjAddr: 0xEDF990, symBinAddr: 0xF94D8, symSize: 0x0 }
  - { offset: 0x297F35, size: 0x8, addend: 0x0, symName: __ZN4rand4rngs7adapter9reseeding4fork12fork_handler17h22ffbf2e098617aaE, symObjAddr: 0x7DB68, symBinAddr: 0x73A00, symSize: 0x14 }
  - { offset: 0x297F53, size: 0x8, addend: 0x0, symName: __ZN4rand4rngs7adapter9reseeding4fork12fork_handler17h22ffbf2e098617aaE, symObjAddr: 0x7DB68, symBinAddr: 0x73A00, symSize: 0x14 }
  - { offset: 0x297F7D, size: 0x8, addend: 0x0, symName: __ZN4rand4rngs7adapter9reseeding4fork12fork_handler17h22ffbf2e098617aaE, symObjAddr: 0x7DB68, symBinAddr: 0x73A00, symSize: 0x14 }
  - { offset: 0x298158, size: 0x8, addend: 0x0, symName: '__ZN4rand4rngs6thread14THREAD_RNG_KEY29_$u7b$$u7b$constant$u7d$$u7d$28_$u7b$$u7b$closure$u7d$$u7d$3VAL17h2db685724e3da225E', symObjAddr: 0xD7B88, symBinAddr: 0xF9298, symSize: 0x0 }
  - { offset: 0x2981CB, size: 0x8, addend: 0x0, symName: '__ZN4rand4rngs6thread14THREAD_RNG_KEY6__init28_$u7b$$u7b$closure$u7d$$u7d$17hd38eada1e0695516E', symObjAddr: 0x7D94C, symBinAddr: 0xB1008, symSize: 0xA4 }
  - { offset: 0x299F59, size: 0x8, addend: 0x0, symName: '__ZN3std3sys12thread_local6native4lazy20Storage$LT$T$C$D$GT$16get_or_init_slow17hbc7f165f4c8b2701E', symObjAddr: 0x7D74C, symBinAddr: 0xB0E08, symSize: 0x200 }
  - { offset: 0x29A9A1, size: 0x8, addend: 0x0, symName: '__ZN5alloc2rc15Rc$LT$T$C$A$GT$9drop_slow17h5d6746ac31f3b716E', symObjAddr: 0x7DA24, symBinAddr: 0x738BC, symSize: 0x24 }
  - { offset: 0x29A9DE, size: 0x8, addend: 0x0, symName: '__ZN5alloc2rc15Rc$LT$T$C$A$GT$9drop_slow17h5d6746ac31f3b716E', symObjAddr: 0x7DA24, symBinAddr: 0x738BC, symSize: 0x24 }
  - { offset: 0x29AD4D, size: 0x8, addend: 0x0, symName: '__ZN4rand4rngs7adapter9reseeding29ReseedingCore$LT$R$C$Rsdr$GT$19reseed_and_generate17h8afbd409223f7ee7E', symObjAddr: 0x7DB7C, symBinAddr: 0x73A14, symSize: 0x11E8 }
  - { offset: 0x2F5987, size: 0x8, addend: 0x0, symName: __ZN9hashbrown3raw11Fallibility17capacity_overflow17h5345637d691a171bE, symObjAddr: 0x6A694, symBinAddr: 0xAC584, symSize: 0x38 }
  - { offset: 0x2F59C3, size: 0x8, addend: 0x0, symName: __ZN9hashbrown3raw11Fallibility17capacity_overflow17h5345637d691a171bE, symObjAddr: 0x6A694, symBinAddr: 0xAC584, symSize: 0x38 }
  - { offset: 0x2F59F3, size: 0x8, addend: 0x0, symName: __ZN9hashbrown3raw11Fallibility9alloc_err17h7ccfec3b6338a4a5E, symObjAddr: 0x6A6CC, symBinAddr: 0xAC5BC, symSize: 0x14 }
  - { offset: 0x23DF43, size: 0x8, addend: 0x0, symName: '__ZN63_$LT$once_cell..imp..Guard$u20$as$u20$core..ops..drop..Drop$GT$4drop17h6e4f6a67ad38c5b1E', symObjAddr: 0x704A0, symBinAddr: 0x69060, symSize: 0xBC }
  - { offset: 0x23EB2F, size: 0x8, addend: 0x0, symName: '__ZN63_$LT$once_cell..imp..Guard$u20$as$u20$core..ops..drop..Drop$GT$4drop17h6e4f6a67ad38c5b1E', symObjAddr: 0x704A0, symBinAddr: 0x69060, symSize: 0xBC }
  - { offset: 0x23F01F, size: 0x8, addend: 0x0, symName: __ZN9once_cell3imp18initialize_or_wait17h8965b760546d9ca6E, symObjAddr: 0x7055C, symBinAddr: 0x6911C, symSize: 0x214 }
  - { offset: 0x20F3CC, size: 0x8, addend: 0x0, symName: '__ZN60_$LT$getrandom..error..Error$u20$as$u20$core..fmt..Debug$GT$3fmt17he1146b8c317d325dE', symObjAddr: 0x692E4, symBinAddr: 0x63D20, symSize: 0x290 }
  - { offset: 0x20F4BD, size: 0x8, addend: 0x0, symName: '__ZN60_$LT$getrandom..error..Error$u20$as$u20$core..fmt..Debug$GT$3fmt17he1146b8c317d325dE', symObjAddr: 0x692E4, symBinAddr: 0x63D20, symSize: 0x290 }
  - { offset: 0x20F673, size: 0x8, addend: 0x0, symName: '__ZN62_$LT$getrandom..error..Error$u20$as$u20$core..fmt..Display$GT$3fmt17hfd0e57cfad6e8b4dE', symObjAddr: 0x69574, symBinAddr: 0x63FB0, symSize: 0x248 }
  - { offset: 0x210040, size: 0x8, addend: 0x0, symName: '__ZN4core3fmt3num50_$LT$impl$u20$core..fmt..Debug$u20$for$u20$u32$GT$3fmt17h496db6a3ca9af780E.1919', symObjAddr: 0x697BC, symBinAddr: 0x641F8, symSize: 0x18 }
  - { offset: 0x21007C, size: 0x8, addend: 0x0, symName: '__ZN4core3fmt3num50_$LT$impl$u20$core..fmt..Debug$u20$for$u20$u32$GT$3fmt17h496db6a3ca9af780E.1919', symObjAddr: 0x697BC, symBinAddr: 0x641F8, symSize: 0x18 }
  - { offset: 0x21009C, size: 0x8, addend: 0x0, symName: '__ZN4core3fmt3num50_$LT$impl$u20$core..fmt..Debug$u20$for$u20$i32$GT$3fmt17h0ee72d503607d7feE', symObjAddr: 0x697D4, symBinAddr: 0x64210, symSize: 0x18 }
  - { offset: 0x2100D8, size: 0x8, addend: 0x0, symName: '__ZN4core3fmt3num50_$LT$impl$u20$core..fmt..Debug$u20$for$u20$i32$GT$3fmt17h0ee72d503607d7feE', symObjAddr: 0x697D4, symBinAddr: 0x64210, symSize: 0x18 }
  - { offset: 0x2A3986, size: 0x8, addend: 0x0, symName: '__ZN4core3ptr50drop_in_place$LT$rayon_core..ThreadPoolBuilder$GT$17h9147538bf9e44144E', symObjAddr: 0x7EDF0, symBinAddr: 0x74C88, symSize: 0x19C }
  - { offset: 0x2A3A3C, size: 0x8, addend: 0x0, symName: __ZN10rayon_core8registry12THE_REGISTRY17h4cbd84f1cde22f21E, symObjAddr: 0xEDF998, symBinAddr: 0xF94E0, symSize: 0x0 }
  - { offset: 0x2A3C22, size: 0x8, addend: 0x0, symName: __ZN10rayon_core8registry14XorShift64Star3new7COUNTER17h1e0b969491ab6de6E, symObjAddr: 0xEDF9A0, symBinAddr: 0xF94E8, symSize: 0x0 }
  - { offset: 0x2A3C3F, size: 0x8, addend: 0x0, symName: __ZN10rayon_core8registry16THE_REGISTRY_SET17h8a1ae2fbf9802600E, symObjAddr: 0xD6EB8, symBinAddr: 0xF85C0, symSize: 0x0 }
  - { offset: 0x2A3C6A, size: 0x8, addend: 0x0, symName: '__ZN10rayon_core8registry19WORKER_THREAD_STATE29_$u7b$$u7b$constant$u7d$$u7d$28_$u7b$$u7b$closure$u7d$$u7d$3VAL17h265bd2e71a4b97e0E', symObjAddr: 0xD7BA0, symBinAddr: 0xF92B0, symSize: 0x0 }
  - { offset: 0x2A3E7F, size: 0x8, addend: 0x0, symName: '__ZN10rayon_core8registry8Registry14in_worker_cold10LOCK_LATCH29_$u7b$$u7b$constant$u7d$$u7d$28_$u7b$$u7b$closure$u7d$$u7d$3VAL17hbc27f34c6ceb6ffeE', symObjAddr: 0xD7BB8, symBinAddr: 0xF92C8, symSize: 0x0 }
  - { offset: 0x2A42DA, size: 0x8, addend: 0x0, symName: '__ZN117_$LT$rayon_core..registry..WorkerThread$u20$as$u20$core..convert..From$LT$rayon_core..registry..ThreadBuilder$GT$$GT$4from17hef683bb764580813E', symObjAddr: 0x814A4, symBinAddr: 0x770BC, symSize: 0x2AC }
  - { offset: 0x2A4EA8, size: 0x8, addend: 0x0, symName: __ZN10rayon_core8registry15global_registry17ha625600dd74efc82E, symObjAddr: 0x84260, symBinAddr: 0x790FC, symSize: 0x188 }
  - { offset: 0x2A5582, size: 0x8, addend: 0x0, symName: '__ZN73_$LT$rayon_core..latch..LockLatch$u20$as$u20$rayon_core..latch..Latch$GT$3set17h2c19ee0762acec86E', symObjAddr: 0x81994, symBinAddr: 0x775AC, symSize: 0x118 }
  - { offset: 0x2A5F67, size: 0x8, addend: 0x0, symName: '__ZN69_$LT$rayon_core..ThreadPoolBuildError$u20$as$u20$core..fmt..Debug$GT$3fmt17h7de72e4c5305656eE', symObjAddr: 0x7F0E8, symBinAddr: 0x74F80, symSize: 0x4C }
  - { offset: 0x2A60F5, size: 0x8, addend: 0x0, symName: '__ZN74_$LT$rayon_core..unwind..AbortIfPanic$u20$as$u20$core..ops..drop..Drop$GT$4drop17he9de1a011cf7f67dE', symObjAddr: 0x82A08, symBinAddr: 0xB132C, symSize: 0x34 }
  - { offset: 0x2A613A, size: 0x8, addend: 0x0, symName: __ZN10rayon_core6unwind16resume_unwinding17h78aed6ba103f0b2dE, symObjAddr: 0x847EC, symBinAddr: 0xB212C, symSize: 0xC }
  - { offset: 0x2A616A, size: 0x8, addend: 0x0, symName: __ZN10rayon_core4join23join_recover_from_panic17h7dec2ca0f5f05c38E, symObjAddr: 0x84768, symBinAddr: 0xB20A8, symSize: 0x84 }
  - { offset: 0x2A6C87, size: 0x8, addend: 0x0, symName: '__ZN81_$LT$std..io..default_write_fmt..Adapter$LT$T$GT$$u20$as$u20$core..fmt..Write$GT$9write_str17h06a4c54bb4c88f60E', symObjAddr: 0x83E04, symBinAddr: 0x78D18, symSize: 0xD0 }
  - { offset: 0x2A70B1, size: 0x8, addend: 0x0, symName: __ZN3std2io5Write9write_fmt17he1b2540169808f8dE, symObjAddr: 0x825BC, symBinAddr: 0x781D4, symSize: 0x124 }
  - { offset: 0x2A754D, size: 0x8, addend: 0x0, symName: __ZN3std2io5Write9write_all17hc01de02e4ccbecf8E, symObjAddr: 0x83C10, symBinAddr: 0x78B24, symSize: 0x14C }
  - { offset: 0x2A7C77, size: 0x8, addend: 0x0, symName: '__ZN3std4sync6poison4once4Once9call_once28_$u7b$$u7b$closure$u7d$$u7d$17hc39b10cf955868bdE', symObjAddr: 0x84410, symBinAddr: 0x792AC, symSize: 0x278 }
  - { offset: 0x2A8DE9, size: 0x8, addend: 0x0, symName: __ZN3std3sys12thread_local6native4lazy7destroy17h6a09a810ca3d8dfdE, symObjAddr: 0x839B0, symBinAddr: 0x78ACC, symSize: 0x58 }
  - { offset: 0x2A8FE1, size: 0x8, addend: 0x0, symName: '__ZN103_$LT$std..sys..thread_local..abort_on_dtor_unwind..DtorUnwindGuard$u20$as$u20$core..ops..drop..Drop$GT$4drop17h60e9498fa7cb5bdeE.2166', symObjAddr: 0x83A08, symBinAddr: 0xB1E28, symSize: 0x3C }
  - { offset: 0x2A90B9, size: 0x8, addend: 0x0, symName: __ZN3std3sys9backtrace28__rust_begin_short_backtrace17hdd36cf5e17f9f1e4E, symObjAddr: 0x826E0, symBinAddr: 0x782F8, symSize: 0x14 }
  - { offset: 0x2A913F, size: 0x8, addend: 0x0, symName: __ZN3std3sys9backtrace28__rust_begin_short_backtrace17hab2b372ba4e89492E, symObjAddr: 0x826F4, symBinAddr: 0x7830C, symSize: 0x23C }
  - { offset: 0x2AB2AB, size: 0x8, addend: 0x0, symName: '__ZN4core3ptr50drop_in_place$LT$rayon_core..ThreadPoolBuilder$GT$17h9147538bf9e44144E', symObjAddr: 0x7EDF0, symBinAddr: 0x74C88, symSize: 0x19C }
  - { offset: 0x2ABA52, size: 0x8, addend: 0x0, symName: '__ZN4core3ptr42drop_in_place$LT$std..io..error..Error$GT$17h31070477011279cfE', symObjAddr: 0x7EF8C, symBinAddr: 0x74E24, symSize: 0xA8 }
  - { offset: 0x2ABE0D, size: 0x8, addend: 0x0, symName: '__ZN4core3ptr53drop_in_place$LT$rayon_core..ThreadPoolBuildError$GT$17haa44553e87f4784dE', symObjAddr: 0x7F034, symBinAddr: 0x74ECC, symSize: 0xB4 }
  - { offset: 0x2AC24E, size: 0x8, addend: 0x0, symName: '__ZN4core3ptr179drop_in_place$LT$core..option..Option$LT$alloc..boxed..Box$LT$dyn$u20$core..ops..function..FnMut$LT$$LP$usize$C$$RP$$GT$$u2b$Output$u20$$u3d$$u20$alloc..string..String$GT$$GT$$GT$17h19e34e0b2d109f7aE', symObjAddr: 0x7F34C, symBinAddr: 0x75050, symSize: 0x7C }
  - { offset: 0x2ACD51, size: 0x8, addend: 0x0, symName: '__ZN4core3ptr160drop_in_place$LT$alloc..sync..ArcInner$LT$crossbeam_utils..cache_padded..CachePadded$LT$crossbeam_deque..deque..Inner$LT$rayon_core..job..JobRef$GT$$GT$$GT$$GT$17h6b30d5e1277c3c4fE', symObjAddr: 0x80B4C, symBinAddr: 0x76850, symSize: 0x3C }
  - { offset: 0x2AD00E, size: 0x8, addend: 0x0, symName: '__ZN4core3ptr201drop_in_place$LT$$LP$alloc..vec..Vec$LT$crossbeam_deque..deque..Worker$LT$rayon_core..job..JobRef$GT$$GT$$C$alloc..vec..Vec$LT$crossbeam_deque..deque..Stealer$LT$rayon_core..job..JobRef$GT$$GT$$RP$$GT$17h107de6dba6e37979E', symObjAddr: 0x80D58, symBinAddr: 0x76970, symSize: 0xE4 }
  - { offset: 0x2AD450, size: 0x8, addend: 0x0, symName: '__ZN4core3ptr106drop_in_place$LT$alloc..vec..Vec$LT$crossbeam_deque..deque..Stealer$LT$rayon_core..job..JobRef$GT$$GT$$GT$17ha1f9341d9de00ba4E', symObjAddr: 0x80E3C, symBinAddr: 0x76A54, symSize: 0x90 }
  - { offset: 0x2AD80C, size: 0x8, addend: 0x0, symName: '__ZN4core3ptr76drop_in_place$LT$alloc..vec..Vec$LT$rayon_core..registry..ThreadInfo$GT$$GT$17h2510d6515988b2f6E', symObjAddr: 0x80F44, symBinAddr: 0x76B5C, symSize: 0x120 }
  - { offset: 0x2AE130, size: 0x8, addend: 0x0, symName: '__ZN4core3ptr45drop_in_place$LT$rayon_core..sleep..Sleep$GT$17h205304481628e7d8E', symObjAddr: 0x81064, symBinAddr: 0x76C7C, symSize: 0xB4 }
  - { offset: 0x2AE6B4, size: 0x8, addend: 0x0, symName: '__ZN4core3ptr51drop_in_place$LT$rayon_core..registry..Registry$GT$17h944752c35250be52E', symObjAddr: 0x81118, symBinAddr: 0x76D30, symSize: 0x214 }
  - { offset: 0x2AF23E, size: 0x8, addend: 0x0, symName: '__ZN4core3ptr313drop_in_place$LT$core..iter..adapters..enumerate..Enumerate$LT$core..iter..adapters..zip..Zip$LT$alloc..vec..into_iter..IntoIter$LT$crossbeam_deque..deque..Worker$LT$rayon_core..job..JobRef$GT$$GT$$C$alloc..vec..into_iter..IntoIter$LT$crossbeam_deque..deque..Stealer$LT$rayon_core..job..JobRef$GT$$GT$$GT$$GT$$GT$17h7bd44f89c5b26288E', symObjAddr: 0x8132C, symBinAddr: 0x76F44, symSize: 0xE8 }
  - { offset: 0x2AF8B7, size: 0x8, addend: 0x0, symName: '__ZN4core3ptr53drop_in_place$LT$rayon_core..registry..Terminator$GT$17h3b417fcae6868bc6E', symObjAddr: 0x81414, symBinAddr: 0x7702C, symSize: 0x90 }
  - { offset: 0x2AFB50, size: 0x8, addend: 0x0, symName: '__ZN4core3ptr55drop_in_place$LT$rayon_core..registry..WorkerThread$GT$17hd5803e8b802b1b33E', symObjAddr: 0x817E0, symBinAddr: 0x773F8, symSize: 0x1B4 }
  - { offset: 0x2B03D3, size: 0x8, addend: 0x0, symName: '__ZN4core3ptr45drop_in_place$LT$rayon_core..job..JobFifo$GT$17h7ad763a363e932d5E', symObjAddr: 0x81C08, symBinAddr: 0x77820, symSize: 0x68 }
  - { offset: 0x2B0735, size: 0x8, addend: 0x0, symName: '__ZN4core3ptr56drop_in_place$LT$std..thread..Packet$LT$$LP$$RP$$GT$$GT$17h39c21ccd0dc41952E', symObjAddr: 0x81C70, symBinAddr: 0x77888, symSize: 0x1CC }
  - { offset: 0x2B0DB8, size: 0x8, addend: 0x0, symName: '__ZN4core3ptr230drop_in_place$LT$std..thread..Builder..spawn_unchecked_$LT$$LT$rayon_core..registry..DefaultSpawn$u20$as$u20$rayon_core..registry..ThreadSpawn$GT$..spawn..$u7b$$u7b$closure$u7d$$u7d$$C$$LP$$RP$$GT$..$u7b$$u7b$closure$u7d$$u7d$$GT$17h191020552e8635f0E', symObjAddr: 0x81E3C, symBinAddr: 0x77A54, symSize: 0x16C }
  - { offset: 0x2B148D, size: 0x8, addend: 0x0, symName: '__ZN4core3ptr154drop_in_place$LT$alloc..boxed..Box$LT$dyn$u20$core..ops..function..FnOnce$LT$$LP$$RP$$GT$$u2b$Output$u20$$u3d$$u20$$LP$$RP$$u2b$core..marker..Send$GT$$GT$17hf5549885fbc0611bE', symObjAddr: 0x82038, symBinAddr: 0x77C50, symSize: 0x78 }
  - { offset: 0x2B16A1, size: 0x8, addend: 0x0, symName: '__ZN4core3ptr60drop_in_place$LT$std..thread..spawnhook..ChildSpawnHooks$GT$17h6169c94d48284d6bE', symObjAddr: 0x820B0, symBinAddr: 0x77CC8, symSize: 0x94 }
  - { offset: 0x2B180D, size: 0x8, addend: 0x0, symName: '__ZN4core3ptr144drop_in_place$LT$$LT$rayon_core..registry..DefaultSpawn$u20$as$u20$rayon_core..registry..ThreadSpawn$GT$..spawn..$u7b$$u7b$closure$u7d$$u7d$$GT$17hcf9253c246268546E', symObjAddr: 0x82144, symBinAddr: 0x77D5C, symSize: 0xD8 }
  - { offset: 0x2B1BFE, size: 0x8, addend: 0x0, symName: '__ZN4core3ptr177drop_in_place$LT$alloc..vec..Vec$LT$alloc..boxed..Box$LT$dyn$u20$core..ops..function..FnOnce$LT$$LP$$RP$$GT$$u2b$Output$u20$$u3d$$u20$$LP$$RP$$u2b$core..marker..Send$GT$$GT$$GT$17habe89fbd8ae4635fE', symObjAddr: 0x8221C, symBinAddr: 0x77E34, symSize: 0xF4 }
  - { offset: 0x2B1FF2, size: 0x8, addend: 0x0, symName: '__ZN4core3ptr205drop_in_place$LT$std..thread..Builder..spawn_unchecked_..MaybeDangling$LT$$LT$rayon_core..registry..DefaultSpawn$u20$as$u20$rayon_core..registry..ThreadSpawn$GT$..spawn..$u7b$$u7b$closure$u7d$$u7d$$GT$$GT$17h90e09c989ee6098eE', symObjAddr: 0x82930, symBinAddr: 0x78548, symSize: 0xD8 }
  - { offset: 0x2B2519, size: 0x8, addend: 0x0, symName: '__ZN4core3ptr93drop_in_place$LT$std..io..default_write_fmt..Adapter$LT$std..sys..stdio..unix..Stderr$GT$$GT$17h6e035599088fc60dE', symObjAddr: 0x83D5C, symBinAddr: 0x78C70, symSize: 0xA8 }
  - { offset: 0x2B28A2, size: 0x8, addend: 0x0, symName: '__ZN4core3ptr130drop_in_place$LT$core..result..Result$LT$$LP$$RP$$C$alloc..boxed..Box$LT$dyn$u20$core..any..Any$u2b$core..marker..Send$GT$$GT$$GT$17hb438463dd506c2e0E', symObjAddr: 0x84084, symBinAddr: 0x78F98, symSize: 0x78 }
  - { offset: 0x2B2AA5, size: 0x8, addend: 0x0, symName: '__ZN4core3ptr188drop_in_place$LT$core..cell..UnsafeCell$LT$core..option..Option$LT$core..result..Result$LT$$LP$$RP$$C$alloc..boxed..Box$LT$dyn$u20$core..any..Any$u2b$core..marker..Send$GT$$GT$$GT$$GT$$GT$17h1e1593409a35029aE', symObjAddr: 0x84168, symBinAddr: 0x7907C, symSize: 0x80 }
  - { offset: 0x2B2D13, size: 0x8, addend: 0x0, symName: '__ZN4core3ptr138drop_in_place$LT$core..result..Result$LT$alloc..sync..Arc$LT$rayon_core..registry..Registry$GT$$C$rayon_core..ThreadPoolBuildError$GT$$GT$17h471afe4411cb3dd9E', symObjAddr: 0x84688, symBinAddr: 0x79524, symSize: 0xE0 }
  - { offset: 0x2B875B, size: 0x8, addend: 0x0, symName: '__ZN4core3ops8function6FnOnce40call_once$u7b$$u7b$vtable.shim$u7d$$u7d$17h563ed7b64caeace8E', symObjAddr: 0x82310, symBinAddr: 0x77F28, symSize: 0x2AC }
  - { offset: 0x2B90F7, size: 0x8, addend: 0x0, symName: '__ZN4core3ops8function6FnOnce40call_once$u7b$$u7b$vtable.shim$u7d$$u7d$17h31bc368d656c3761E', symObjAddr: 0x843E8, symBinAddr: 0x79284, symSize: 0x28 }
  - { offset: 0x2B96EB, size: 0x8, addend: 0x0, symName: '__ZN42_$LT$$RF$T$u20$as$u20$core..fmt..Debug$GT$3fmt17h15649ff4f4ee3462E', symObjAddr: 0x7F134, symBinAddr: 0x74FCC, symSize: 0x7C }
  - { offset: 0x2B976C, size: 0x8, addend: 0x0, symName: '__ZN42_$LT$$RF$T$u20$as$u20$core..fmt..Debug$GT$3fmt17he27465120cc62d1dE', symObjAddr: 0x7F1B0, symBinAddr: 0x75048, symSize: 0x8 }
  - { offset: 0x2B9979, size: 0x8, addend: 0x0, symName: __ZN4core3fmt5Write10write_char17hce47434d705dbffbE, symObjAddr: 0x83ED4, symBinAddr: 0x78DE8, symSize: 0x194 }
  - { offset: 0x2B9E8F, size: 0x8, addend: 0x0, symName: __ZN4core3fmt5Write9write_fmt17h63026a77c8fa0414E, symObjAddr: 0x84068, symBinAddr: 0x78F7C, symSize: 0x1C }
  - { offset: 0x2BEB5A, size: 0x8, addend: 0x0, symName: '__ZN5alloc7raw_vec20RawVecInner$LT$A$GT$7reserve21do_reserve_and_handle17h8a779f6aa3839472E', symObjAddr: 0x80C6C, symBinAddr: 0xB1240, symSize: 0xEC }
  - { offset: 0x2BEF2C, size: 0x8, addend: 0x0, symName: __ZN5alloc7raw_vec11finish_grow17h42d2588326bc4f03E, symObjAddr: 0x841E8, symBinAddr: 0xB2030, symSize: 0x78 }
  - { offset: 0x2C09F9, size: 0x8, addend: 0x0, symName: __ZN15crossbeam_epoch7default11with_handle17hc819d8d68bc060baE, symObjAddr: 0x83674, symBinAddr: 0x78790, symSize: 0x1C0 }
  - { offset: 0x2C1EF0, size: 0x8, addend: 0x0, symName: '__ZN3std3sys4sync8once_box16OnceBox$LT$T$GT$10initialize17h084f3eb0ef486e0fE', symObjAddr: 0x7F1B8, symBinAddr: 0xB10AC, symSize: 0xE8 }
  - { offset: 0x2C238A, size: 0x8, addend: 0x0, symName: '__ZN3std3sys4sync8once_box16OnceBox$LT$T$GT$10initialize17h888b75f4ab5dad73E', symObjAddr: 0x7F2A0, symBinAddr: 0xB1194, symSize: 0xAC }
  - { offset: 0x2C460A, size: 0x8, addend: 0x0, symName: __ZN10rayon_core8registry8Registry3new17hff83ea5def5e07ecE, symObjAddr: 0x7F3C8, symBinAddr: 0x750CC, symSize: 0x1784 }
  - { offset: 0x2CA010, size: 0x8, addend: 0x0, symName: '__ZN15crossbeam_deque5deque15Worker$LT$T$GT$8new_fifo17h0ec2d064bc51631eE', symObjAddr: 0x80B88, symBinAddr: 0x7688C, symSize: 0xE4 }
  - { offset: 0x2CA669, size: 0x8, addend: 0x0, symName: '__ZN5alloc4sync16Arc$LT$T$C$A$GT$9drop_slow17h8f2340fdd371e02bE', symObjAddr: 0x80ECC, symBinAddr: 0x76AE4, symSize: 0x78 }
  - { offset: 0x2CAF12, size: 0x8, addend: 0x0, symName: '__ZN5alloc4sync16Arc$LT$T$C$A$GT$9drop_slow17hc2f35c24dfed28f9E', symObjAddr: 0x81750, symBinAddr: 0x77368, symSize: 0x90 }
  - { offset: 0x2CB838, size: 0x8, addend: 0x0, symName: __ZN10rayon_core5sleep5Sleep20wake_specific_thread17h4da8461dab59018aE, symObjAddr: 0x81AAC, symBinAddr: 0x776C4, symSize: 0x15C }
  - { offset: 0x2CC0A4, size: 0x8, addend: 0x0, symName: '__ZN5alloc4sync16Arc$LT$T$C$A$GT$9drop_slow17h94c7550a6e2be636E', symObjAddr: 0x81FA8, symBinAddr: 0x77BC0, symSize: 0x90 }
  - { offset: 0x2CDADA, size: 0x8, addend: 0x0, symName: __ZN10rayon_core8registry12WorkerThread15wait_until_cold17hc4b16de9c0fdd2b5E, symObjAddr: 0x82A3C, symBinAddr: 0xB1360, symSize: 0x658 }
  - { offset: 0x2CFCF8, size: 0x8, addend: 0x0, symName: __ZN10rayon_core8registry12WorkerThread14take_local_job17h3b9d74c56d22dc0fE.2163, symObjAddr: 0x83094, symBinAddr: 0x78620, symSize: 0x170 }
  - { offset: 0x2D0ABC, size: 0x8, addend: 0x0, symName: __ZN10rayon_core5sleep5Sleep5sleep17hdbd173ecd5f01447E, symObjAddr: 0x83204, symBinAddr: 0xB19B8, symSize: 0x340 }
  - { offset: 0x2D19E5, size: 0x8, addend: 0x0, symName: __ZN10rayon_core5sleep5Sleep16wake_any_threads17h476ec688ac22d6daE, symObjAddr: 0x83544, symBinAddr: 0xB1CF8, symSize: 0x68 }
  - { offset: 0x2D1B4F, size: 0x8, addend: 0x0, symName: '__ZN3std3sys12thread_local6native4lazy20Storage$LT$T$C$D$GT$16get_or_init_slow17hf5f4dc46f8c19be0E', symObjAddr: 0x835AC, symBinAddr: 0xB1D60, symSize: 0xC8 }
  - { offset: 0x2D223E, size: 0x8, addend: 0x0, symName: '__ZN15crossbeam_deque5deque16Stealer$LT$T$GT$5steal17hede16fc3bc6c9dd2E', symObjAddr: 0x83834, symBinAddr: 0x78950, symSize: 0x17C }
  - { offset: 0x2D2CFE, size: 0x8, addend: 0x0, symName: '__ZN15crossbeam_deque5deque15Worker$LT$T$GT$6resize17ha9f011e6d59d6c9cE', symObjAddr: 0x83A44, symBinAddr: 0xB1E64, symSize: 0x1CC }
  - { offset: 0x2D3A5A, size: 0x8, addend: 0x0, symName: '__ZN5alloc4sync16Arc$LT$T$C$A$GT$9drop_slow17he0739ef4abfd5331E', symObjAddr: 0x840FC, symBinAddr: 0x79010, symSize: 0x6C }
  - { offset: 0x2D432D, size: 0x8, addend: 0x0, symName: __ZN10rayon_core5latch9LockLatch14wait_and_reset17h8771df0da5b3cae8E, symObjAddr: 0x847F8, symBinAddr: 0x79604, symSize: 0x1F0 }
  - { offset: 0x2D4E28, size: 0x8, addend: 0x0, symName: __ZN10rayon_core8registry8Registry6inject17ha23e85f4a344eca4E, symObjAddr: 0x849E8, symBinAddr: 0x797F4, symSize: 0x1FC }
  - { offset: 0x2F5F9E, size: 0x8, addend: 0x0, symName: __ZN3std9panicking11panic_count17is_zero_slow_path17h24290651bb572e96E, symObjAddr: 0x8F5D0, symBinAddr: 0xB30E4, symSize: 0x2C }
  - { offset: 0x2F60BC, size: 0x8, addend: 0x0, symName: __ZN3std9panicking15panic_with_hook17he6431e171a67d1a5E, symObjAddr: 0x8E49C, symBinAddr: 0x82440, symSize: 0x994 }
  - { offset: 0x2F78AC, size: 0x8, addend: 0x0, symName: __RNvCskdKJRKLKjqM_7___rustc10rust_panic, symObjAddr: 0x8F478, symBinAddr: 0xB308C, symSize: 0x58 }
  - { offset: 0x2F78FE, size: 0x8, addend: 0x0, symName: __ZN3std9panicking12catch_unwind7cleanup17h32fb21e19649bccbE, symObjAddr: 0xB5FC0, symBinAddr: 0xB6B18, symSize: 0x8C }
  - { offset: 0x2F7A85, size: 0x8, addend: 0x0, symName: __RNvCskdKJRKLKjqM_7___rustc17___rust_drop_panic, symObjAddr: 0xB1BC8, symBinAddr: 0xA2538, symSize: 0xB4 }
  - { offset: 0x2F7C7A, size: 0x8, addend: 0x0, symName: __RNvCskdKJRKLKjqM_7___rustc17rust_begin_unwind, symObjAddr: 0xB1C7C, symBinAddr: 0xA25EC, symSize: 0x20 }
  - { offset: 0x2F7CB0, size: 0x8, addend: 0x0, symName: '__ZN3std9panicking13panic_handler28_$u7b$$u7b$closure$u7d$$u7d$17h42f8d27eb97efb5cE', symObjAddr: 0xB1CA8, symBinAddr: 0xA2618, symSize: 0xC0 }
  - { offset: 0x2F7E0C, size: 0x8, addend: 0x0, symName: '__ZN86_$LT$std..panicking..panic_handler..StaticStrPayload$u20$as$u20$core..fmt..Display$GT$3fmt17h23daa1d361c20ad8E', symObjAddr: 0xB1D68, symBinAddr: 0xA26D8, symSize: 0x14 }
  - { offset: 0x2F7E43, size: 0x8, addend: 0x0, symName: '__ZN93_$LT$std..panicking..panic_handler..StaticStrPayload$u20$as$u20$core..panic..PanicPayload$GT$8take_box17h6400803d1e475458E', symObjAddr: 0xB1D7C, symBinAddr: 0xA26EC, symSize: 0x44 }
  - { offset: 0x2F7EBA, size: 0x8, addend: 0x0, symName: '__ZN93_$LT$std..panicking..panic_handler..StaticStrPayload$u20$as$u20$core..panic..PanicPayload$GT$3get17h9446d3bfcd75a0d7E', symObjAddr: 0xB1DC0, symBinAddr: 0xA2730, symSize: 0xC }
  - { offset: 0x2F7ED5, size: 0x8, addend: 0x0, symName: '__ZN93_$LT$std..panicking..panic_handler..StaticStrPayload$u20$as$u20$core..panic..PanicPayload$GT$6as_str17hdc3733a5b5cc28baE', symObjAddr: 0xB1DCC, symBinAddr: 0xA273C, symSize: 0xC }
  - { offset: 0x2F7EF6, size: 0x8, addend: 0x0, symName: '__ZN89_$LT$std..panicking..panic_handler..FormatStringPayload$u20$as$u20$core..fmt..Display$GT$3fmt17h96c36f262cceff4fE', symObjAddr: 0xB1DF4, symBinAddr: 0xA2764, symSize: 0x78 }
  - { offset: 0x2F8032, size: 0x8, addend: 0x0, symName: '__ZN96_$LT$std..panicking..panic_handler..FormatStringPayload$u20$as$u20$core..panic..PanicPayload$GT$8take_box17hb2deabfa34b702e6E', symObjAddr: 0xB1E6C, symBinAddr: 0xA27DC, symSize: 0x84 }
  - { offset: 0x2F8182, size: 0x8, addend: 0x0, symName: '__ZN96_$LT$std..panicking..panic_handler..FormatStringPayload$u20$as$u20$core..panic..PanicPayload$GT$3get17he69c34545aa12e4dE', symObjAddr: 0xB1EF0, symBinAddr: 0xA2860, symSize: 0x1C }
  - { offset: 0x2F81BC, size: 0x8, addend: 0x0, symName: __ZN3std9panicking13panic_handler19FormatStringPayload4fill17h49f06b785e976a61E, symObjAddr: 0xB1F14, symBinAddr: 0xA2884, symSize: 0xC0 }
  - { offset: 0x2F830D, size: 0x8, addend: 0x0, symName: __RNvCskdKJRKLKjqM_7___rustc24___rust_foreign_exception, symObjAddr: 0xB2220, symBinAddr: 0xA2B90, symSize: 0xB4 }
  - { offset: 0x2F8502, size: 0x8, addend: 0x0, symName: __ZN3std9panicking13resume_unwind17h7733a55bb39204d3E, symObjAddr: 0xB4FA0, symBinAddr: 0xB6964, symSize: 0xB8 }
  - { offset: 0x2F8725, size: 0x8, addend: 0x0, symName: '__ZN79_$LT$std..panicking..resume_unwind..RewrapBox$u20$as$u20$core..fmt..Display$GT$3fmt17h9dba1ff092c99152E', symObjAddr: 0xB50C8, symBinAddr: 0xA54EC, symSize: 0x18 }
  - { offset: 0x2F8743, size: 0x8, addend: 0x0, symName: '__ZN79_$LT$std..panicking..resume_unwind..RewrapBox$u20$as$u20$core..fmt..Display$GT$3fmt17h9dba1ff092c99152E', symObjAddr: 0xB50C8, symBinAddr: 0xA54EC, symSize: 0x18 }
  - { offset: 0x2F875C, size: 0x8, addend: 0x0, symName: '__ZN86_$LT$std..panicking..resume_unwind..RewrapBox$u20$as$u20$core..panic..PanicPayload$GT$8take_box17h84506983667acf49E', symObjAddr: 0xB50E0, symBinAddr: 0xA5504, symSize: 0x1C }
  - { offset: 0x2F877A, size: 0x8, addend: 0x0, symName: '__ZN86_$LT$std..panicking..resume_unwind..RewrapBox$u20$as$u20$core..panic..PanicPayload$GT$8take_box17h84506983667acf49E', symObjAddr: 0xB50E0, symBinAddr: 0xA5504, symSize: 0x1C }
  - { offset: 0x2F878D, size: 0x8, addend: 0x0, symName: '__ZN86_$LT$std..panicking..resume_unwind..RewrapBox$u20$as$u20$core..panic..PanicPayload$GT$3get17h248bbda19e982d4eE', symObjAddr: 0xB50FC, symBinAddr: 0xA5520, symSize: 0xC }
  - { offset: 0x2F87C8, size: 0x8, addend: 0x0, symName: __ZN3std3sys9backtrace13BacktraceLock5print17hea663f6050de4073E, symObjAddr: 0x8F650, symBinAddr: 0x83418, symSize: 0x50 }
  - { offset: 0x2F8816, size: 0x8, addend: 0x0, symName: '__ZN98_$LT$std..sys..backtrace..BacktraceLock..print..DisplayBacktrace$u20$as$u20$core..fmt..Display$GT$3fmt17hfd528c9d14c1136fE', symObjAddr: 0x8F6A0, symBinAddr: 0x83468, symSize: 0x310 }
  - { offset: 0x2F90F1, size: 0x8, addend: 0x0, symName: '__ZN3std3sys9backtrace10_print_fmt28_$u7b$$u7b$closure$u7d$$u7d$17ha7bccce4e6c2a239E', symObjAddr: 0x8FA30, symBinAddr: 0x837C0, symSize: 0x2850 }
  - { offset: 0x2FEA49, size: 0x8, addend: 0x0, symName: '__ZN3std3sys9backtrace10_print_fmt28_$u7b$$u7b$closure$u7d$$u7d$28_$u7b$$u7b$closure$u7d$$u7d$17h98603fdd5adbbfdcE', symObjAddr: 0xAEAA4, symBinAddr: 0x9F8C0, symSize: 0x25C }
  - { offset: 0x2FEC5E, size: 0x8, addend: 0x0, symName: '__ZN3std3sys9backtrace10_print_fmt28_$u7b$$u7b$closure$u7d$$u7d$17h64c635585236989fE', symObjAddr: 0xAF218, symBinAddr: 0xA0034, symSize: 0x24 }
  - { offset: 0x2FEC87, size: 0x8, addend: 0x0, symName: __ZN3std3sys9backtrace15output_filename17h6da850852b2497bfE, symObjAddr: 0xAF23C, symBinAddr: 0xA0058, symSize: 0x3C0 }
  - { offset: 0x2FEF7F, size: 0x8, addend: 0x0, symName: __ZN3std3sys9backtrace26__rust_end_short_backtrace17h0de35f7407a5e0d8E, symObjAddr: 0xB1C9C, symBinAddr: 0xA260C, symSize: 0xC }
  - { offset: 0x2FEFBF, size: 0x8, addend: 0x0, symName: _rust_eh_personality, symObjAddr: 0x8E158, symBinAddr: 0x820FC, symSize: 0x344 }
  - { offset: 0x2FF29C, size: 0x8, addend: 0x0, symName: '__ZN3std3sys11personality3gcc14find_eh_action28_$u7b$$u7b$closure$u7d$$u7d$17hc6e49a652099b2faE', symObjAddr: 0xB1ABC, symBinAddr: 0xA242C, symSize: 0xC }
  - { offset: 0x2FF2BE, size: 0x8, addend: 0x0, symName: '__ZN3std3sys11personality3gcc14find_eh_action28_$u7b$$u7b$closure$u7d$$u7d$17h3ded5c67f5e06d18E', symObjAddr: 0xB1AD4, symBinAddr: 0xA2444, symSize: 0xC }
  - { offset: 0x2FF312, size: 0x8, addend: 0x0, symName: __ZN3std3sys11personality5dwarf2eh19read_encoded_offset17h4247a370d6a78c9aE, symObjAddr: 0xB1968, symBinAddr: 0xA22D8, symSize: 0x148 }
  - { offset: 0x2FF4EF, size: 0x8, addend: 0x0, symName: __ZN3std3sys4sync6rwlock5queue6RwLock12unlock_queue17h6341a139252af1a4E, symObjAddr: 0x8F218, symBinAddr: 0x830A0, symSize: 0x1CC }
  - { offset: 0x2FFB86, size: 0x8, addend: 0x0, symName: __ZN3std3sys4sync6rwlock5queue6RwLock21read_unlock_contended17hf10ad3e8d16e983dE, symObjAddr: 0xB0B80, symBinAddr: 0xB62E8, symSize: 0x40 }
  - { offset: 0x2FFBA4, size: 0x8, addend: 0x0, symName: __ZN3std3sys4sync6rwlock5queue6RwLock21read_unlock_contended17hf10ad3e8d16e983dE, symObjAddr: 0xB0B80, symBinAddr: 0xB62E8, symSize: 0x40 }
  - { offset: 0x2FFBB9, size: 0x8, addend: 0x0, symName: __ZN3std3sys4sync6rwlock5queue6RwLock21read_unlock_contended17hf10ad3e8d16e983dE, symObjAddr: 0xB0B80, symBinAddr: 0xB62E8, symSize: 0x40 }
  - { offset: 0x2FFCF5, size: 0x8, addend: 0x0, symName: __ZN3std3sys4sync6rwlock5queue6RwLock16unlock_contended17hd5d9b4bea5b136d5E, symObjAddr: 0xB0BC0, symBinAddr: 0xB6328, symSize: 0x40 }
  - { offset: 0x2FFE80, size: 0x8, addend: 0x0, symName: '__ZN83_$LT$std..sys..sync..rwlock..queue..PanicGuard$u20$as$u20$core..ops..drop..Drop$GT$4drop17h5297df96adf6f25aE', symObjAddr: 0x8F3E4, symBinAddr: 0xB3050, symSize: 0x3C }
  - { offset: 0x2FFEF5, size: 0x8, addend: 0x0, symName: __ZN3std3sys4sync14thread_parking6darwin6Parker6unpark17h30d5e1d9aed479fbE, symObjAddr: 0xB4890, symBinAddr: 0xA4E5C, symSize: 0x20 }
  - { offset: 0x2FFF0C, size: 0x8, addend: 0x0, symName: __ZN3std3sys4sync14thread_parking6darwin6Parker6unpark17h30d5e1d9aed479fbE, symObjAddr: 0xB4890, symBinAddr: 0xA4E5C, symSize: 0x20 }
  - { offset: 0x2FFF20, size: 0x8, addend: 0x0, symName: __ZN3std3sys4sync14thread_parking6darwin6Parker6unpark17h30d5e1d9aed479fbE, symObjAddr: 0xB4890, symBinAddr: 0xA4E5C, symSize: 0x20 }
  - { offset: 0x2FFF82, size: 0x8, addend: 0x0, symName: '__ZN3std3sys4sync8once_box16OnceBox$LT$T$GT$10initialize17hb710239f2ab0be2bE', symObjAddr: 0xAFD5C, symBinAddr: 0xB60F4, symSize: 0xE8 }
  - { offset: 0x3001C2, size: 0x8, addend: 0x0, symName: '__ZN3std3sys4sync8once_box16OnceBox$LT$T$GT$10initialize17he236e3bccb91a85bE', symObjAddr: 0xB48B0, symBinAddr: 0xB6874, symSize: 0xAC }
  - { offset: 0x300401, size: 0x8, addend: 0x0, symName: '__ZN79_$LT$std..sys..sync..mutex..pthread..Mutex$u20$as$u20$core..ops..drop..Drop$GT$4drop17h300daffeadf09dc3E', symObjAddr: 0xB6110, symBinAddr: 0xA63AC, symSize: 0x54 }
  - { offset: 0x300547, size: 0x8, addend: 0x0, symName: '__ZN82_$LT$std..sys..sync..once..queue..WaiterQueue$u20$as$u20$core..ops..drop..Drop$GT$4drop17h7f1d4befd79eb70eE', symObjAddr: 0xB32F8, symBinAddr: 0xA3A40, symSize: 0xDC }
  - { offset: 0x30071B, size: 0x8, addend: 0x0, symName: __ZN3std3sys4sync4once5queue4Once4call17hd1bb46051256f23fE, symObjAddr: 0xB2F88, symBinAddr: 0xB64F8, symSize: 0x200 }
  - { offset: 0x3009E5, size: 0x8, addend: 0x0, symName: __ZN3std3sys4sync4once5queue4wait17hfd76cbd9a064ab39E, symObjAddr: 0xB3188, symBinAddr: 0xA38D0, symSize: 0x170 }
  - { offset: 0x300FC5, size: 0x8, addend: 0x0, symName: __ZN3std3sys3pal4unix4sync5mutex5Mutex4init17h3dc7e68cdddb15ffE, symObjAddr: 0xB01A8, symBinAddr: 0xA0DC8, symSize: 0x16C }
  - { offset: 0x30105A, size: 0x8, addend: 0x0, symName: __ZN3std3sys3pal4unix4sync5mutex5Mutex4lock17hee1b23b211066a46E, symObjAddr: 0xB4870, symBinAddr: 0xA4E3C, symSize: 0x1C }
  - { offset: 0x30106E, size: 0x8, addend: 0x0, symName: __ZN3std3sys3pal4unix4sync5mutex5Mutex6unlock17h8c276320f9e5b859E, symObjAddr: 0xB488C, symBinAddr: 0xA4E58, symSize: 0x4 }
  - { offset: 0x3010A2, size: 0x8, addend: 0x0, symName: '__ZN81_$LT$std..sys..pal..unix..sync..mutex..Mutex$u20$as$u20$core..ops..drop..Drop$GT$4drop17h42d4c430af281cfcE', symObjAddr: 0xB6164, symBinAddr: 0xA6400, symSize: 0x4 }
  - { offset: 0x3010C1, size: 0x8, addend: 0x0, symName: __ZN3std3sys3pal4unix4sync5mutex5Mutex4lock4fail17h626389f0d772d537E, symObjAddr: 0xAFE44, symBinAddr: 0xB61DC, symSize: 0xDC }
  - { offset: 0x3013F1, size: 0x8, addend: 0x0, symName: __ZN3std3sys3pal4unix14abort_internal17h8d76cac37bc1e660E, symObjAddr: 0xB1564, symBinAddr: 0xB64C4, symSize: 0xC }
  - { offset: 0x30145D, size: 0x8, addend: 0x0, symName: __ZN3std3sys3pal4unix14stack_overflow3imp12drop_handler17hc9fb2befc4b4b16bE, symObjAddr: 0xB4474, symBinAddr: 0xA4A40, symSize: 0x14C }
  - { offset: 0x3016BC, size: 0x8, addend: 0x0, symName: __ZN3std3sys3pal4unix4time8Timespec3now17h1c483c896060ee01E, symObjAddr: 0xB467C, symBinAddr: 0xA4C48, symSize: 0x118 }
  - { offset: 0x301766, size: 0x8, addend: 0x0, symName: __ZN3std3sys3pal4unix4time8Timespec12sub_timespec17he739490ae09bd578E, symObjAddr: 0xB4794, symBinAddr: 0xA4D60, symSize: 0xDC }
  - { offset: 0x3018B0, size: 0x8, addend: 0x0, symName: __ZN3std3sys3pal6common14small_c_string24run_with_cstr_allocating17h798411b79b11fd56E, symObjAddr: 0xA5234, symBinAddr: 0xB5F54, symSize: 0xA8 }
  - { offset: 0x301987, size: 0x8, addend: 0x0, symName: __ZN3std3sys3pal6common14small_c_string24run_with_cstr_allocating17hee1175bf1c9e834cE, symObjAddr: 0xAE87C, symBinAddr: 0xB5FFC, symSize: 0xC0 }
  - { offset: 0x301C04, size: 0x8, addend: 0x0, symName: __ZN3std3sys12thread_local6native5eager7destroy17hc47c13c8987a0638E, symObjAddr: 0xB57B4, symBinAddr: 0xA5B18, symSize: 0x84 }
  - { offset: 0x301DD5, size: 0x8, addend: 0x0, symName: __ZN3std3sys12thread_local5guard5apple6enable9run_dtors17h8979e0b3d1187c7fE, symObjAddr: 0xB0560, symBinAddr: 0xA1150, symSize: 0xF4 }
  - { offset: 0x30227E, size: 0x8, addend: 0x0, symName: __ZN3std3sys12thread_local11destructors4list8register17he85c11a1c2ed5827E, symObjAddr: 0xB0458, symBinAddr: 0xA1048, symSize: 0x108 }
  - { offset: 0x302555, size: 0x8, addend: 0x0, symName: '__ZN103_$LT$std..sys..thread_local..abort_on_dtor_unwind..DtorUnwindGuard$u20$as$u20$core..ops..drop..Drop$GT$4drop17h60e9498fa7cb5bdeE.2382', symObjAddr: 0xB5C68, symBinAddr: 0xB6ADC, symSize: 0x3C }
  - { offset: 0x3025A4, size: 0x8, addend: 0x0, symName: __ZN3std3sys6thread4unix6Thread3new17h598a15b30234b3bbE, symObjAddr: 0xB49CC, symBinAddr: 0xA4EEC, symSize: 0x28C }
  - { offset: 0x302902, size: 0x8, addend: 0x0, symName: __ZN3std3sys6thread4unix6Thread3new12thread_start17h96f5a914e64457adE, symObjAddr: 0xB4CE8, symBinAddr: 0xA5208, symSize: 0xAC }
  - { offset: 0x302B3B, size: 0x8, addend: 0x0, symName: __ZN3std3sys6thread4unix8set_name17he7a1947ba8d1d220E, symObjAddr: 0xB4E40, symBinAddr: 0xA5360, symSize: 0x60 }
  - { offset: 0x302C78, size: 0x8, addend: 0x0, symName: '__ZN72_$LT$std..sys..thread..unix..Thread$u20$as$u20$core..ops..drop..Drop$GT$4drop17h2e6941fced3e3d4cE', symObjAddr: 0xB6108, symBinAddr: 0xA63A4, symSize: 0x8 }
  - { offset: 0x302CDD, size: 0x8, addend: 0x0, symName: '__ZN64_$LT$std..sys..stdio..unix..Stderr$u20$as$u20$std..io..Write$GT$5write17hb65269e8ba794fd5E', symObjAddr: 0x8F4D0, symBinAddr: 0x832C4, symSize: 0x54 }
  - { offset: 0x302F8A, size: 0x8, addend: 0x0, symName: __ZN3std3sys2fs4unix4File6open_c17h8b4308debc18b247E, symObjAddr: 0xAE6E4, symBinAddr: 0x9F5C0, symSize: 0x198 }
  - { offset: 0x30310A, size: 0x8, addend: 0x0, symName: '__ZN65_$LT$std..sys..fs..unix..Dir$u20$as$u20$core..ops..drop..Drop$GT$4drop17hb27d2dcfbde0f4f8E', symObjAddr: 0xA4998, symBinAddr: 0x9591C, symSize: 0xC4 }
  - { offset: 0x3031D5, size: 0x8, addend: 0x0, symName: __ZN3std3sys2fs8read_dir17h01b537fe6e853e47E, symObjAddr: 0x96174, symBinAddr: 0x89E0C, symSize: 0x26C }
  - { offset: 0x3036A0, size: 0x8, addend: 0x0, symName: __ZN3std3sys6random19hashmap_random_keys17hf529b7ed551945bdE, symObjAddr: 0xB495C, symBinAddr: 0xA4E7C, symSize: 0x70 }
  - { offset: 0x3037D4, size: 0x8, addend: 0x0, symName: '__ZN68_$LT$std..thread..local..AccessError$u20$as$u20$core..fmt..Debug$GT$3fmt17h56cbf97f51b65d82E', symObjAddr: 0xB2BCC, symBinAddr: 0xA3514, symSize: 0x18 }
  - { offset: 0x3037F1, size: 0x8, addend: 0x0, symName: '__ZN68_$LT$std..thread..local..AccessError$u20$as$u20$core..fmt..Debug$GT$3fmt17h56cbf97f51b65d82E', symObjAddr: 0xB2BCC, symBinAddr: 0xA3514, symSize: 0x18 }
  - { offset: 0x303805, size: 0x8, addend: 0x0, symName: '__ZN68_$LT$std..thread..local..AccessError$u20$as$u20$core..fmt..Debug$GT$3fmt17h56cbf97f51b65d82E', symObjAddr: 0xB2BCC, symBinAddr: 0xA3514, symSize: 0x18 }
  - { offset: 0x30381A, size: 0x8, addend: 0x0, symName: '__ZN68_$LT$std..thread..local..AccessError$u20$as$u20$core..fmt..Debug$GT$3fmt17h56cbf97f51b65d82E', symObjAddr: 0xB2BCC, symBinAddr: 0xA3514, symSize: 0x18 }
  - { offset: 0x30382F, size: 0x8, addend: 0x0, symName: __ZN3std6thread5local18panic_access_error17h2216af0f25787575E, symObjAddr: 0xB5270, symBinAddr: 0xB6A58, symSize: 0x44 }
  - { offset: 0x3038B7, size: 0x8, addend: 0x0, symName: __ZN3std6thread6Thread3new17hbf5aeb1736bec1e3E, symObjAddr: 0xB0D5C, symBinAddr: 0xA1770, symSize: 0x234 }
  - { offset: 0x303D46, size: 0x8, addend: 0x0, symName: __ZN3std6thread6Thread4name17h6bc4ce3032a4dca2E, symObjAddr: 0xB52B4, symBinAddr: 0xA5658, symSize: 0x1C }
  - { offset: 0x303D64, size: 0x8, addend: 0x0, symName: __ZN3std6thread6Thread4name17h6bc4ce3032a4dca2E, symObjAddr: 0xB52B4, symBinAddr: 0xA5658, symSize: 0x1C }
  - { offset: 0x303D79, size: 0x8, addend: 0x0, symName: __ZN3std6thread6Thread4name17h6bc4ce3032a4dca2E, symObjAddr: 0xB52B4, symBinAddr: 0xA5658, symSize: 0x1C }
  - { offset: 0x303D8E, size: 0x8, addend: 0x0, symName: __ZN3std6thread6Thread4name17h6bc4ce3032a4dca2E, symObjAddr: 0xB52B4, symBinAddr: 0xA5658, symSize: 0x1C }
  - { offset: 0x303DA3, size: 0x8, addend: 0x0, symName: __ZN3std6thread6Thread4name17h6bc4ce3032a4dca2E, symObjAddr: 0xB52B4, symBinAddr: 0xA5658, symSize: 0x1C }
  - { offset: 0x303DB8, size: 0x8, addend: 0x0, symName: __ZN3std6thread6Thread4name17h6bc4ce3032a4dca2E, symObjAddr: 0xB52B4, symBinAddr: 0xA5658, symSize: 0x1C }
  - { offset: 0x303DFA, size: 0x8, addend: 0x0, symName: __ZN3std6thread6Thread5cname17h20303418391c01d1E, symObjAddr: 0xB52D0, symBinAddr: 0xA5674, symSize: 0x18 }
  - { offset: 0x303E18, size: 0x8, addend: 0x0, symName: __ZN3std6thread6Thread5cname17h20303418391c01d1E, symObjAddr: 0xB52D0, symBinAddr: 0xA5674, symSize: 0x18 }
  - { offset: 0x303E2D, size: 0x8, addend: 0x0, symName: __ZN3std6thread6Thread5cname17h20303418391c01d1E, symObjAddr: 0xB52D0, symBinAddr: 0xA5674, symSize: 0x18 }
  - { offset: 0x303E42, size: 0x8, addend: 0x0, symName: __ZN3std6thread6Thread5cname17h20303418391c01d1E, symObjAddr: 0xB52D0, symBinAddr: 0xA5674, symSize: 0x18 }
  - { offset: 0x303E57, size: 0x8, addend: 0x0, symName: __ZN3std6thread6Thread5cname17h20303418391c01d1E, symObjAddr: 0xB52D0, symBinAddr: 0xA5674, symSize: 0x18 }
  - { offset: 0x303E6C, size: 0x8, addend: 0x0, symName: __ZN3std6thread6Thread5cname17h20303418391c01d1E, symObjAddr: 0xB52D0, symBinAddr: 0xA5674, symSize: 0x18 }
  - { offset: 0x304020, size: 0x8, addend: 0x0, symName: __ZN3std6thread7current12init_current17h76e9942ca4b6363dE, symObjAddr: 0xB0C00, symBinAddr: 0xB6368, symSize: 0x15C }
  - { offset: 0x30433F, size: 0x8, addend: 0x0, symName: __ZN3std6thread7current11set_current17h82229c39f5853247E, symObjAddr: 0xB5404, symBinAddr: 0xA5768, symSize: 0xA4 }
  - { offset: 0x3044AA, size: 0x8, addend: 0x0, symName: __ZN3std6thread7current7current17h5e23c981ad89f6e6E, symObjAddr: 0xB54A8, symBinAddr: 0xA580C, symSize: 0x48 }
  - { offset: 0x304619, size: 0x8, addend: 0x0, symName: __ZN3std6thread8ThreadId3new17h278bea144da16f51E, symObjAddr: 0xB54F0, symBinAddr: 0xA5854, symSize: 0x44 }
  - { offset: 0x304714, size: 0x8, addend: 0x0, symName: __ZN3std6thread8ThreadId3new9exhausted17ha73a828480ec4fa2E, symObjAddr: 0xAF9C0, symBinAddr: 0xB60BC, symSize: 0x38 }
  - { offset: 0x30474C, size: 0x8, addend: 0x0, symName: '__ZN65_$LT$std..thread..PanicGuard$u20$as$u20$core..ops..drop..Drop$GT$4drop17h49cd4061dd3ce0cdE', symObjAddr: 0xB511C, symBinAddr: 0xB6A1C, symSize: 0x3C }
  - { offset: 0x30477D, size: 0x8, addend: 0x0, symName: __ZN3std6thread21available_parallelism17h364929544ea32d9eE, symObjAddr: 0xB5158, symBinAddr: 0xA5540, symSize: 0x50 }
  - { offset: 0x304804, size: 0x8, addend: 0x0, symName: __ZN3std6thread4park17h9b7983a027d72a8eE, symObjAddr: 0xB51A8, symBinAddr: 0xA5590, symSize: 0xC8 }
  - { offset: 0x304A52, size: 0x8, addend: 0x0, symName: __ZN3std6thread6scoped9ScopeData29decrement_num_running_threads17hc32944e5c8cd1234E, symObjAddr: 0xB52E8, symBinAddr: 0xA568C, symSize: 0x44 }
  - { offset: 0x304B87, size: 0x8, addend: 0x0, symName: __ZN3std6thread6scoped9ScopeData29increment_num_running_threads17hb2997e14227b24b9E, symObjAddr: 0xB532C, symBinAddr: 0xA56D0, symSize: 0x20 }
  - { offset: 0x304BA4, size: 0x8, addend: 0x0, symName: __ZN3std6thread6scoped9ScopeData29increment_num_running_threads17hb2997e14227b24b9E, symObjAddr: 0xB532C, symBinAddr: 0xA56D0, symSize: 0x20 }
  - { offset: 0x304BB8, size: 0x8, addend: 0x0, symName: __ZN3std6thread6scoped9ScopeData29increment_num_running_threads17hb2997e14227b24b9E, symObjAddr: 0xB532C, symBinAddr: 0xA56D0, symSize: 0x20 }
  - { offset: 0x304BE0, size: 0x8, addend: 0x0, symName: __ZN3std6thread6scoped9ScopeData8overflow17hf14214d9c5e0ed27E, symObjAddr: 0xB534C, symBinAddr: 0xB6A9C, symSize: 0x40 }
  - { offset: 0x304C16, size: 0x8, addend: 0x0, symName: __ZN3std6thread7Builder4name17h0b43b7a1c5190a4dE, symObjAddr: 0xB538C, symBinAddr: 0xA56F0, symSize: 0x78 }
  - { offset: 0x304CFD, size: 0x8, addend: 0x0, symName: __ZN3std6thread9spawnhook15ChildSpawnHooks3run17h0a7e2640f6b0dabfE, symObjAddr: 0xB5534, symBinAddr: 0xA5898, symSize: 0x280 }
  - { offset: 0x305472, size: 0x8, addend: 0x0, symName: '__ZN76_$LT$std..thread..spawnhook..SpawnHooks$u20$as$u20$core..ops..drop..Drop$GT$4drop17hb5e31a489771fc3cE', symObjAddr: 0xB5838, symBinAddr: 0xA5B9C, symSize: 0x100 }
  - { offset: 0x3057D1, size: 0x8, addend: 0x0, symName: __ZN3std6thread9spawnhook15run_spawn_hooks17hf230a6184db54247E, symObjAddr: 0xB5CA4, symBinAddr: 0xA5FCC, symSize: 0x298 }
  - { offset: 0x305DD9, size: 0x8, addend: 0x0, symName: __ZN3std6thread9yield_now17h13bfbf4da6c105c9E, symObjAddr: 0xB5FBC, symBinAddr: 0xA62E4, symSize: 0x4 }
  - { offset: 0x305DF7, size: 0x8, addend: 0x0, symName: __ZN3std6thread9yield_now17h13bfbf4da6c105c9E, symObjAddr: 0xB5FBC, symBinAddr: 0xA62E4, symSize: 0x4 }
  - { offset: 0x305F60, size: 0x8, addend: 0x0, symName: '__ZN3std4sync6poison4once4Once15call_once_force28_$u7b$$u7b$closure$u7d$$u7d$17hbc808b72c855c88aE', symObjAddr: 0xB4108, symBinAddr: 0xA46D4, symSize: 0x6C }
  - { offset: 0x3060CC, size: 0x8, addend: 0x0, symName: __ZN3std4sync6poison7condvar7Condvar10notify_all17h77c415bde0584a8cE, symObjAddr: 0xB4EA0, symBinAddr: 0xA53C0, symSize: 0x28 }
  - { offset: 0x306162, size: 0x8, addend: 0x0, symName: __ZN3std4sync6poison7condvar7Condvar10notify_one17h4877129a8ef93a50E, symObjAddr: 0xB4EC8, symBinAddr: 0xA53E8, symSize: 0x28 }
  - { offset: 0x3062F5, size: 0x8, addend: 0x0, symName: '__ZN3std4sync9once_lock17OnceLock$LT$T$GT$10initialize17h3ac2c0cdefeecb80E', symObjAddr: 0xB36E4, symBinAddr: 0xB66F8, symSize: 0x58 }
  - { offset: 0x306320, size: 0x8, addend: 0x0, symName: '__ZN3std4sync9once_lock17OnceLock$LT$T$GT$10initialize17h3ac2c0cdefeecb80E', symObjAddr: 0xB36E4, symBinAddr: 0xB66F8, symSize: 0x58 }
  - { offset: 0x306334, size: 0x8, addend: 0x0, symName: '__ZN3std4sync9once_lock17OnceLock$LT$T$GT$10initialize17h3ac2c0cdefeecb80E', symObjAddr: 0xB36E4, symBinAddr: 0xB66F8, symSize: 0x58 }
  - { offset: 0x306348, size: 0x8, addend: 0x0, symName: '__ZN3std4sync9once_lock17OnceLock$LT$T$GT$10initialize17h3ac2c0cdefeecb80E', symObjAddr: 0xB36E4, symBinAddr: 0xB66F8, symSize: 0x58 }
  - { offset: 0x306393, size: 0x8, addend: 0x0, symName: __ZN3std4sync9lazy_lock14panic_poisoned17ha6a5ac338dc3f997E, symObjAddr: 0xB4EF0, symBinAddr: 0xB6920, symSize: 0x38 }
  - { offset: 0x30640E, size: 0x8, addend: 0x0, symName: __ZN3std5panic13resume_unwind17h544eab57042a23ebE, symObjAddr: 0xB4F94, symBinAddr: 0xB6958, symSize: 0xC }
  - { offset: 0x30644A, size: 0x8, addend: 0x0, symName: __ZN3std3env7_var_os17he408374094189780E, symObjAddr: 0xB0704, symBinAddr: 0xA12F4, symSize: 0x47C }
  - { offset: 0x306FC0, size: 0x8, addend: 0x0, symName: __ZN3std3env4_var17hdd815babe2a43a98E, symObjAddr: 0xB460C, symBinAddr: 0xA4BD8, symSize: 0x70 }
  - { offset: 0x307273, size: 0x8, addend: 0x0, symName: __ZN3std2io5Write9write_fmt17hc70e63382e9f29d2E, symObjAddr: 0x8EEB4, symBinAddr: 0x82E58, symSize: 0x12C }
  - { offset: 0x3074E6, size: 0x8, addend: 0x0, symName: __ZN3std2io5Write9write_all17hfca7eea50e527240E, symObjAddr: 0x8F524, symBinAddr: 0x83318, symSize: 0xAC }
  - { offset: 0x30770E, size: 0x8, addend: 0x0, symName: __ZN3std2io5error5Error3new17hb0366e1179bed02aE, symObjAddr: 0xAE93C, symBinAddr: 0x9F758, symSize: 0xE4 }
  - { offset: 0x307A7C, size: 0x8, addend: 0x0, symName: '__ZN62_$LT$std..io..error..ErrorKind$u20$as$u20$core..fmt..Debug$GT$3fmt17hcbf070d750c729a3E', symObjAddr: 0xA5140, symBinAddr: 0x960C4, symSize: 0x2C }
  - { offset: 0x307AAB, size: 0x8, addend: 0x0, symName: '__ZN58_$LT$std..io..error..Error$u20$as$u20$core..fmt..Debug$GT$3fmt17h4bd0f28bf79564b3E', symObjAddr: 0xA4B04, symBinAddr: 0x95A88, symSize: 0x5F4 }
  - { offset: 0x30825E, size: 0x8, addend: 0x0, symName: '__ZN60_$LT$std..io..error..Error$u20$as$u20$core..fmt..Display$GT$3fmt17h96a3add2cd05308dE', symObjAddr: 0xAFF20, symBinAddr: 0xA0B40, symSize: 0x278 }
  - { offset: 0x30868C, size: 0x8, addend: 0x0, symName: '__ZN81_$LT$std..io..default_write_fmt..Adapter$LT$T$GT$$u20$as$u20$core..fmt..Write$GT$9write_str17h2db7b0298947a58eE', symObjAddr: 0xAFAA0, symBinAddr: 0xA0884, symSize: 0x104 }
  - { offset: 0x30899A, size: 0x8, addend: 0x0, symName: '__ZN81_$LT$std..io..default_write_fmt..Adapter$LT$T$GT$$u20$as$u20$core..fmt..Write$GT$9write_str17h284da73b654d1506E', symObjAddr: 0xB1570, symBinAddr: 0xA1F78, symSize: 0x150 }
  - { offset: 0x308C6C, size: 0x8, addend: 0x0, symName: '__ZN81_$LT$std..io..default_write_fmt..Adapter$LT$T$GT$$u20$as$u20$core..fmt..Write$GT$9write_str17h10e9f47aa3ed1394E', symObjAddr: 0xB2CE8, symBinAddr: 0xA3630, symSize: 0xD0 }
  - { offset: 0x308E7D, size: 0x8, addend: 0x0, symName: '__ZN81_$LT$std..io..default_write_fmt..Adapter$LT$T$GT$$u20$as$u20$core..fmt..Write$GT$9write_str17h12683b88d4f37dd7E', symObjAddr: 0xB3DFC, symBinAddr: 0xA43C8, symSize: 0xD0 }
  - { offset: 0x309095, size: 0x8, addend: 0x0, symName: __ZN3std2io19default_read_to_end16small_probe_read17hf462e356365ca663E, symObjAddr: 0xB23E4, symBinAddr: 0xA2D2C, symSize: 0xEC }
  - { offset: 0x309300, size: 0x8, addend: 0x0, symName: '__ZN61_$LT$std..io..stdio..StderrLock$u20$as$u20$std..io..Write$GT$9write_all17hb857a858b0795a45E', symObjAddr: 0xB2BE4, symBinAddr: 0xA352C, symSize: 0x104 }
  - { offset: 0x3095AA, size: 0x8, addend: 0x0, symName: __ZN3std2io5stdio6Stdout4lock17hab397b929a4be022E, symObjAddr: 0xB33D4, symBinAddr: 0xA3B1C, symSize: 0xE4 }
  - { offset: 0x309899, size: 0x8, addend: 0x0, symName: '__ZN57_$LT$std..io..stdio..Stdout$u20$as$u20$std..io..Write$GT$5flush17h81fbf30306a500d6E', symObjAddr: 0xB604C, symBinAddr: 0xA62E8, symSize: 0xBC }
  - { offset: 0x309C65, size: 0x8, addend: 0x0, symName: __ZN3std2io5stdio6_print17h31727a912c7756f3E, symObjAddr: 0xB34B8, symBinAddr: 0xA3C00, symSize: 0x22C }
  - { offset: 0x30A19A, size: 0x8, addend: 0x0, symName: '__ZN61_$LT$std..io..stdio..StdoutLock$u20$as$u20$std..io..Write$GT$9write_all17ha54dfc02195772b6E', symObjAddr: 0xB373C, symBinAddr: 0xA3E2C, symSize: 0x364 }
  - { offset: 0x30AA1A, size: 0x8, addend: 0x0, symName: __ZN3std2io5stdio6stdout17hcf84b9dd48c89800E, symObjAddr: 0xB4174, symBinAddr: 0xA4740, symSize: 0x18 }
  - { offset: 0x30AA4B, size: 0x8, addend: 0x0, symName: __ZN3std2io5stdio6stdout17hcf84b9dd48c89800E, symObjAddr: 0xB4174, symBinAddr: 0xA4740, symSize: 0x18 }
  - { offset: 0x30AA60, size: 0x8, addend: 0x0, symName: __ZN3std2io5stdio6stdout17hcf84b9dd48c89800E, symObjAddr: 0xB4174, symBinAddr: 0xA4740, symSize: 0x18 }
  - { offset: 0x30AA74, size: 0x8, addend: 0x0, symName: __ZN3std2io5stdio6stdout17hcf84b9dd48c89800E, symObjAddr: 0xB4174, symBinAddr: 0xA4740, symSize: 0x18 }
  - { offset: 0x30AA89, size: 0x8, addend: 0x0, symName: __ZN3std2io5stdio6stdout17hcf84b9dd48c89800E, symObjAddr: 0xB4174, symBinAddr: 0xA4740, symSize: 0x18 }
  - { offset: 0x30AA9E, size: 0x8, addend: 0x0, symName: __ZN3std2io5stdio6stdout17hcf84b9dd48c89800E, symObjAddr: 0xB4174, symBinAddr: 0xA4740, symSize: 0x18 }
  - { offset: 0x30AAB2, size: 0x8, addend: 0x0, symName: __ZN3std2io5stdio6stdout17hcf84b9dd48c89800E, symObjAddr: 0xB4174, symBinAddr: 0xA4740, symSize: 0x18 }
  - { offset: 0x30AB16, size: 0x8, addend: 0x0, symName: __ZN3std2io5stdio7_eprint17h73a471e66cd26e7aE, symObjAddr: 0xB418C, symBinAddr: 0xA4758, symSize: 0x2E8 }
  - { offset: 0x30B2DE, size: 0x8, addend: 0x0, symName: '__ZN3std2io8buffered9bufwriter18BufWriter$LT$W$GT$9flush_buf17h29164ec56610038eE', symObjAddr: 0xB3AA0, symBinAddr: 0xA4190, symSize: 0x1DC }
  - { offset: 0x30B745, size: 0x8, addend: 0x0, symName: '__ZN3std2io8buffered9bufwriter18BufWriter$LT$W$GT$14write_all_cold17h513e838fe8161279E', symObjAddr: 0xB3C7C, symBinAddr: 0xB6750, symSize: 0x124 }
  - { offset: 0x30BA1E, size: 0x8, addend: 0x0, symName: __ZN3std7process5abort17he872d13fc606be41E, symObjAddr: 0x8F088, symBinAddr: 0xB2F34, symSize: 0xC }
  - { offset: 0x30BACA, size: 0x8, addend: 0x0, symName: __ZN3std12backtrace_rs5print17BacktraceFrameFmt21print_raw_with_column17h3c81486fb0007567E, symObjAddr: 0x92280, symBinAddr: 0x86010, symSize: 0x440 }
  - { offset: 0x30BC96, size: 0x8, addend: 0x0, symName: __ZN3std12backtrace_rs9backtrace9libunwind5trace8trace_fn17h03c27b8c72497427E, symObjAddr: 0x8F9B0, symBinAddr: 0x83778, symSize: 0x44 }
  - { offset: 0x30BE46, size: 0x8, addend: 0x0, symName: __ZN3std12backtrace_rs9symbolize5gimli5macho6Object5parse17hbc26463257d20f2aE, symObjAddr: 0x936F0, symBinAddr: 0x87388, symSize: 0xBAC }
  - { offset: 0x30DAE1, size: 0x8, addend: 0x0, symName: __ZN3std12backtrace_rs9symbolize5gimli5macho6Object7section17he22847e43a23fe6bE, symObjAddr: 0xA533C, symBinAddr: 0x96218, symSize: 0x154 }
  - { offset: 0x30DF03, size: 0x8, addend: 0x0, symName: __ZN3std12backtrace_rs9symbolize5gimli5macho11find_header17h057a153a1489d815E, symObjAddr: 0x92E80, symBinAddr: 0x86B18, symSize: 0x1D4 }
  - { offset: 0x30DF20, size: 0x8, addend: 0x0, symName: __ZN3std12backtrace_rs9symbolize5gimli5macho11find_header17h057a153a1489d815E, symObjAddr: 0x92E80, symBinAddr: 0x86B18, symSize: 0x1D4 }
  - { offset: 0x30DF34, size: 0x8, addend: 0x0, symName: __ZN3std12backtrace_rs9symbolize5gimli5macho11find_header17h057a153a1489d815E, symObjAddr: 0x92E80, symBinAddr: 0x86B18, symSize: 0x1D4 }
  - { offset: 0x30DF48, size: 0x8, addend: 0x0, symName: __ZN3std12backtrace_rs9symbolize5gimli5macho11find_header17h057a153a1489d815E, symObjAddr: 0x92E80, symBinAddr: 0x86B18, symSize: 0x1D4 }
  - { offset: 0x30DF5C, size: 0x8, addend: 0x0, symName: __ZN3std12backtrace_rs9symbolize5gimli5macho11find_header17h057a153a1489d815E, symObjAddr: 0x92E80, symBinAddr: 0x86B18, symSize: 0x1D4 }
  - { offset: 0x30DF71, size: 0x8, addend: 0x0, symName: __ZN3std12backtrace_rs9symbolize5gimli5macho11find_header17h057a153a1489d815E, symObjAddr: 0x92E80, symBinAddr: 0x86B18, symSize: 0x1D4 }
  - { offset: 0x30DF86, size: 0x8, addend: 0x0, symName: __ZN3std12backtrace_rs9symbolize5gimli5macho11find_header17h057a153a1489d815E, symObjAddr: 0x92E80, symBinAddr: 0x86B18, symSize: 0x1D4 }
  - { offset: 0x30E794, size: 0x8, addend: 0x0, symName: __ZN3std12backtrace_rs9symbolize5gimli4mmap17h8dd225413c7073a4E, symObjAddr: 0x92B38, symBinAddr: 0x867D0, symSize: 0x29C }
  - { offset: 0x30ED90, size: 0x8, addend: 0x0, symName: __ZN3std12backtrace_rs9symbolize5gimli7Context3new17h2384661d7d9b1f78E, symObjAddr: 0x9429C, symBinAddr: 0x87F34, symSize: 0x1ED8 }
  - { offset: 0x312AD8, size: 0x8, addend: 0x0, symName: __ZN3std12backtrace_rs9symbolize5gimli7Context11find_frames17h73caac78ce26352aE, symObjAddr: 0x96974, symBinAddr: 0x8A60C, symSize: 0x3B0 }
  - { offset: 0x313059, size: 0x8, addend: 0x0, symName: '__ZN79_$LT$std..backtrace_rs..symbolize..SymbolName$u20$as$u20$core..fmt..Display$GT$3fmt17hb783e3698fc7e9b5E', symObjAddr: 0x9277C, symBinAddr: 0x8650C, symSize: 0x210 }
  - { offset: 0x313183, size: 0x8, addend: 0x0, symName: __ZN3std12backtrace_rs9symbolize6Symbol4name17h06b8fd10d9b9a257E, symObjAddr: 0xAED00, symBinAddr: 0x9FB1C, symSize: 0xE4 }
  - { offset: 0x3133AF, size: 0x8, addend: 0x0, symName: __ZN3std4path4Path5_join17h54f095185b763ad9E, symObjAddr: 0x965FC, symBinAddr: 0x8A294, symSize: 0x190 }
  - { offset: 0x313A1A, size: 0x8, addend: 0x0, symName: __ZN3std4path10Components7as_path17h8b47be53b7bb02abE, symObjAddr: 0x933CC, symBinAddr: 0x87064, symSize: 0x324 }
  - { offset: 0x313CA6, size: 0x8, addend: 0x0, symName: __ZN3std4path10Components25parse_next_component_back17h96bead52961e5974E, symObjAddr: 0xAE448, symBinAddr: 0x9F324, symSize: 0x110 }
  - { offset: 0x313E3A, size: 0x8, addend: 0x0, symName: __ZN3std4path10Components15len_before_body17h183e6460ce02202dE, symObjAddr: 0xAE558, symBinAddr: 0x9F434, symSize: 0x18C }
  - { offset: 0x313E51, size: 0x8, addend: 0x0, symName: __ZN3std4path10Components15len_before_body17h183e6460ce02202dE, symObjAddr: 0xAE558, symBinAddr: 0x9F434, symSize: 0x18C }
  - { offset: 0x313E66, size: 0x8, addend: 0x0, symName: __ZN3std4path10Components15len_before_body17h183e6460ce02202dE, symObjAddr: 0xAE558, symBinAddr: 0x9F434, symSize: 0x18C }
  - { offset: 0x31400B, size: 0x8, addend: 0x0, symName: '__ZN95_$LT$std..path..Components$u20$as$u20$core..iter..traits..double_ended..DoubleEndedIterator$GT$9next_back17hbbb48aeb24b30ac1E', symObjAddr: 0x93054, symBinAddr: 0x86CEC, symSize: 0x378 }
  - { offset: 0x314292, size: 0x8, addend: 0x0, symName: '__ZN80_$LT$std..path..Components$u20$as$u20$core..iter..traits..iterator..Iterator$GT$4next17hcff4524e130e7a04E', symObjAddr: 0xAF5FC, symBinAddr: 0xA0418, symSize: 0x3C4 }
  - { offset: 0x3146A5, size: 0x8, addend: 0x0, symName: '__ZN75_$LT$std..fs..ReadDir$u20$as$u20$core..iter..traits..iterator..Iterator$GT$4next17h1265719e5d52e8c4E', symObjAddr: 0x963E0, symBinAddr: 0x8A078, symSize: 0x164 }
  - { offset: 0x31497D, size: 0x8, addend: 0x0, symName: __ZN3std2fs4read5inner17h7757a25aeb5fd575E, symObjAddr: 0xB24D0, symBinAddr: 0xA2E18, symSize: 0x494 }
  - { offset: 0x31530C, size: 0x8, addend: 0x0, symName: __ZN3std2fs5write5inner17he8ac422c6e1bd7c5E, symObjAddr: 0xB2964, symBinAddr: 0xA32AC, symSize: 0x268 }
  - { offset: 0x3157AC, size: 0x8, addend: 0x0, symName: __RNvCskdKJRKLKjqM_7___rustc11___rdl_alloc, symObjAddr: 0xB1AE0, symBinAddr: 0xA2450, symSize: 0x58 }
  - { offset: 0x315832, size: 0x8, addend: 0x0, symName: __RNvCskdKJRKLKjqM_7___rustc13___rdl_dealloc, symObjAddr: 0xB1B38, symBinAddr: 0xA24A8, symSize: 0x4 }
  - { offset: 0x315851, size: 0x8, addend: 0x0, symName: __RNvCskdKJRKLKjqM_7___rustc13___rdl_dealloc, symObjAddr: 0xB1B38, symBinAddr: 0xA24A8, symSize: 0x4 }
  - { offset: 0x315864, size: 0x8, addend: 0x0, symName: __RNvCskdKJRKLKjqM_7___rustc13___rdl_realloc, symObjAddr: 0xB1B3C, symBinAddr: 0xA24AC, symSize: 0x8C }
  - { offset: 0x315934, size: 0x8, addend: 0x0, symName: __RNvCskdKJRKLKjqM_7___rustc18___rdl_alloc_zeroed, symObjAddr: 0xB21A4, symBinAddr: 0xA2B14, symSize: 0x7C }
  - { offset: 0x3159CD, size: 0x8, addend: 0x0, symName: __RNvCskdKJRKLKjqM_7___rustc8___rg_oom, symObjAddr: 0xB22D4, symBinAddr: 0xB64D0, symSize: 0x18 }
  - { offset: 0x3159E9, size: 0x8, addend: 0x0, symName: __ZN3std5alloc8rust_oom17h64a98ce1b291034bE, symObjAddr: 0xB22EC, symBinAddr: 0xB64E8, symSize: 0x10 }
  - { offset: 0x315A04, size: 0x8, addend: 0x0, symName: __ZN3std5alloc24default_alloc_error_hook17hda855b09bf8ce5bfE, symObjAddr: 0xB22FC, symBinAddr: 0xA2C44, symSize: 0xE8 }
  - { offset: 0x315C42, size: 0x8, addend: 0x0, symName: __ZN3std4time7Instant3now17h96378d48b1d625ebE, symObjAddr: 0xB4F28, symBinAddr: 0xA5410, symSize: 0x4 }
  - { offset: 0x315C59, size: 0x8, addend: 0x0, symName: __ZN3std4time7Instant3now17h96378d48b1d625ebE, symObjAddr: 0xB4F28, symBinAddr: 0xA5410, symSize: 0x4 }
  - { offset: 0x315C96, size: 0x8, addend: 0x0, symName: __ZN3std4time7Instant7elapsed17h304c2773e294bb50E, symObjAddr: 0xB4F2C, symBinAddr: 0xA5414, symSize: 0x68 }
  - { offset: 0x317154, size: 0x8, addend: 0x0, symName: '__ZN4core3ptr81drop_in_place$LT$core..result..Result$LT$$LP$$RP$$C$std..io..error..Error$GT$$GT$17h655ff33c339b6cb1E', symObjAddr: 0x8EFE0, symBinAddr: 0x82F84, symSize: 0xA8 }
  - { offset: 0x3173AC, size: 0x8, addend: 0x0, symName: '__ZN4core3ptr91drop_in_place$LT$std..sync..poison..rwlock..RwLockReadGuard$LT$std..panicking..Hook$GT$$GT$17h122e01823e090c32E', symObjAddr: 0x8F420, symBinAddr: 0x8326C, symSize: 0x58 }
  - { offset: 0x31745A, size: 0x8, addend: 0x0, symName: '__ZN4core3ptr55drop_in_place$LT$std..sys..backtrace..BacktraceLock$GT$17ha850308758d1d2f9E', symObjAddr: 0x8F5FC, symBinAddr: 0x833C4, symSize: 0x54 }
  - { offset: 0x317478, size: 0x8, addend: 0x0, symName: '__ZN4core3ptr55drop_in_place$LT$std..sys..backtrace..BacktraceLock$GT$17ha850308758d1d2f9E', symObjAddr: 0x8F5FC, symBinAddr: 0x833C4, symSize: 0x54 }
  - { offset: 0x31748D, size: 0x8, addend: 0x0, symName: '__ZN4core3ptr55drop_in_place$LT$std..sys..backtrace..BacktraceLock$GT$17ha850308758d1d2f9E', symObjAddr: 0x8F5FC, symBinAddr: 0x833C4, symSize: 0x54 }
  - { offset: 0x3175A7, size: 0x8, addend: 0x0, symName: '__ZN4core3ptr66drop_in_place$LT$std..backtrace_rs..backtrace..libunwind..Bomb$GT$17hf3cf99a2a39305f3E', symObjAddr: 0x8F9F4, symBinAddr: 0xB3110, symSize: 0x38 }
  - { offset: 0x3178E1, size: 0x8, addend: 0x0, symName: '__ZN4core3ptr70drop_in_place$LT$std..backtrace_rs..symbolize..gimli..stash..Stash$GT$17hed8a877d9cede334E', symObjAddr: 0x92DD4, symBinAddr: 0x86A6C, symSize: 0xAC }
  - { offset: 0x317F4D, size: 0x8, addend: 0x0, symName: '__ZN4core3ptr65drop_in_place$LT$std..backtrace_rs..symbolize..gimli..Context$GT$17h29923633989d7a97E', symObjAddr: 0x9678C, symBinAddr: 0x8A424, symSize: 0x1E8 }
  - { offset: 0x3184BE, size: 0x8, addend: 0x0, symName: '__ZN4core3ptr275drop_in_place$LT$gimli..read..line..LineRows$LT$gimli..read..endian_slice..EndianSlice$LT$gimli..endianity..LittleEndian$GT$$C$gimli..read..line..IncompleteLineProgram$LT$gimli..read..endian_slice..EndianSlice$LT$gimli..endianity..LittleEndian$GT$$C$usize$GT$$C$usize$GT$$GT$17h53f25b84add21487E', symObjAddr: 0x998A0, symBinAddr: 0x8BBC8, symSize: 0x74 }
  - { offset: 0x3186DE, size: 0x8, addend: 0x0, symName: '__ZN4core3ptr73drop_in_place$LT$alloc..vec..Vec$LT$addr2line..line..LineSequence$GT$$GT$17h677f3e6952565af2E', symObjAddr: 0x99914, symBinAddr: 0x8BC3C, symSize: 0x78 }
  - { offset: 0x3187F5, size: 0x8, addend: 0x0, symName: '__ZN4core3ptr77drop_in_place$LT$alloc..boxed..Box$LT$$u5b$alloc..string..String$u5d$$GT$$GT$17h78b274672de7575aE', symObjAddr: 0x9998C, symBinAddr: 0x8BCB4, symSize: 0x64 }
  - { offset: 0x31880C, size: 0x8, addend: 0x0, symName: '__ZN4core3ptr77drop_in_place$LT$alloc..boxed..Box$LT$$u5b$alloc..string..String$u5d$$GT$$GT$17h78b274672de7575aE', symObjAddr: 0x9998C, symBinAddr: 0x8BCB4, symSize: 0x64 }
  - { offset: 0x318916, size: 0x8, addend: 0x0, symName: '__ZN4core3ptr65drop_in_place$LT$alloc..vec..Vec$LT$alloc..string..String$GT$$GT$17h1a875569544aab8bE', symObjAddr: 0x99D18, symBinAddr: 0x8C040, symSize: 0x78 }
  - { offset: 0x318A73, size: 0x8, addend: 0x0, symName: '__ZN4core3ptr284drop_in_place$LT$core..result..Result$LT$$RF$core..result..Result$LT$addr2line..line..Lines$C$gimli..read..Error$GT$$C$$LP$$RF$core..result..Result$LT$addr2line..line..Lines$C$gimli..read..Error$GT$$C$core..result..Result$LT$addr2line..line..Lines$C$gimli..read..Error$GT$$RP$$GT$$GT$17hb193a9c217a4a4c1E', symObjAddr: 0x9A210, symBinAddr: 0x8C538, symSize: 0x10 }
  - { offset: 0x318ACD, size: 0x8, addend: 0x0, symName: '__ZN4core3ptr92drop_in_place$LT$core..result..Result$LT$addr2line..line..Lines$C$gimli..read..Error$GT$$GT$17ha1897ab6fc371eb0E', symObjAddr: 0x9A220, symBinAddr: 0x8C548, symSize: 0xBC }
  - { offset: 0x318F41, size: 0x8, addend: 0x0, symName: '__ZN4core3ptr557drop_in_place$LT$core..result..Result$LT$$RF$core..result..Result$LT$addr2line..function..Function$LT$gimli..read..endian_slice..EndianSlice$LT$gimli..endianity..LittleEndian$GT$$GT$$C$gimli..read..Error$GT$$C$$LP$$RF$core..result..Result$LT$addr2line..function..Function$LT$gimli..read..endian_slice..EndianSlice$LT$gimli..endianity..LittleEndian$GT$$GT$$C$gimli..read..Error$GT$$C$core..result..Result$LT$addr2line..function..Function$LT$gimli..read..endian_slice..EndianSlice$LT$gimli..endianity..LittleEndian$GT$$GT$$C$gimli..read..Error$GT$$RP$$GT$$GT$17hddd2d7300f8297eaE', symObjAddr: 0x9FB94, symBinAddr: 0x90B98, symSize: 0x58 }
  - { offset: 0x31910E, size: 0x8, addend: 0x0, symName: '__ZN4core3ptr138drop_in_place$LT$addr2line..function..LazyFunction$LT$gimli..read..endian_slice..EndianSlice$LT$gimli..endianity..LittleEndian$GT$$GT$$GT$17h5b1532da9ccb5096E', symObjAddr: 0xA27A4, symBinAddr: 0x937A8, symSize: 0x58 }
  - { offset: 0x319125, size: 0x8, addend: 0x0, symName: '__ZN4core3ptr138drop_in_place$LT$addr2line..function..LazyFunction$LT$gimli..read..endian_slice..EndianSlice$LT$gimli..endianity..LittleEndian$GT$$GT$$GT$17h5b1532da9ccb5096E', symObjAddr: 0xA27A4, symBinAddr: 0x937A8, symSize: 0x58 }
  - { offset: 0x31913A, size: 0x8, addend: 0x0, symName: '__ZN4core3ptr138drop_in_place$LT$addr2line..function..LazyFunction$LT$gimli..read..endian_slice..EndianSlice$LT$gimli..endianity..LittleEndian$GT$$GT$$GT$17h5b1532da9ccb5096E', symObjAddr: 0xA27A4, symBinAddr: 0x937A8, symSize: 0x58 }
  - { offset: 0x31914F, size: 0x8, addend: 0x0, symName: '__ZN4core3ptr138drop_in_place$LT$addr2line..function..LazyFunction$LT$gimli..read..endian_slice..EndianSlice$LT$gimli..endianity..LittleEndian$GT$$GT$$GT$17h5b1532da9ccb5096E', symObjAddr: 0xA27A4, symBinAddr: 0x937A8, symSize: 0x58 }
  - { offset: 0x31922E, size: 0x8, addend: 0x0, symName: '__ZN4core3ptr161drop_in_place$LT$alloc..vec..Vec$LT$addr2line..function..LazyFunction$LT$gimli..read..endian_slice..EndianSlice$LT$gimli..endianity..LittleEndian$GT$$GT$$GT$$GT$17h3d6d53657b9c2934E', symObjAddr: 0xA27FC, symBinAddr: 0x93800, symSize: 0x98 }
  - { offset: 0x3193F2, size: 0x8, addend: 0x0, symName: '__ZN4core3ptr173drop_in_place$LT$alloc..boxed..Box$LT$$u5b$addr2line..function..LazyFunction$LT$gimli..read..endian_slice..EndianSlice$LT$gimli..endianity..LittleEndian$GT$$GT$$u5d$$GT$$GT$17h2cad5765df2f5de8E', symObjAddr: 0xA2894, symBinAddr: 0x93898, symSize: 0x84 }
  - { offset: 0x319409, size: 0x8, addend: 0x0, symName: '__ZN4core3ptr173drop_in_place$LT$alloc..boxed..Box$LT$$u5b$addr2line..function..LazyFunction$LT$gimli..read..endian_slice..EndianSlice$LT$gimli..endianity..LittleEndian$GT$$GT$$u5d$$GT$$GT$17h2cad5765df2f5de8E', symObjAddr: 0xA2894, symBinAddr: 0x93898, symSize: 0x84 }
  - { offset: 0x31956E, size: 0x8, addend: 0x0, symName: '__ZN4core3ptr560drop_in_place$LT$core..result..Result$LT$$RF$core..result..Result$LT$addr2line..function..Functions$LT$gimli..read..endian_slice..EndianSlice$LT$gimli..endianity..LittleEndian$GT$$GT$$C$gimli..read..Error$GT$$C$$LP$$RF$core..result..Result$LT$addr2line..function..Functions$LT$gimli..read..endian_slice..EndianSlice$LT$gimli..endianity..LittleEndian$GT$$GT$$C$gimli..read..Error$GT$$C$core..result..Result$LT$addr2line..function..Functions$LT$gimli..read..endian_slice..EndianSlice$LT$gimli..endianity..LittleEndian$GT$$GT$$C$gimli..read..Error$GT$$RP$$GT$$GT$17he4dc02a625b1da45E', symObjAddr: 0xA2918, symBinAddr: 0x9391C, symSize: 0x10 }
  - { offset: 0x3195C8, size: 0x8, addend: 0x0, symName: '__ZN4core3ptr184drop_in_place$LT$core..result..Result$LT$addr2line..function..Functions$LT$gimli..read..endian_slice..EndianSlice$LT$gimli..endianity..LittleEndian$GT$$GT$$C$gimli..read..Error$GT$$GT$17h9a3bad25e1bdcbe6E', symObjAddr: 0xA2928, symBinAddr: 0x9392C, symSize: 0xAC }
  - { offset: 0x319890, size: 0x8, addend: 0x0, symName: '__ZN4core3ptr701drop_in_place$LT$core..result..Result$LT$$RF$core..result..Result$LT$core..option..Option$LT$alloc..boxed..Box$LT$addr2line..unit..DwoUnit$LT$gimli..read..endian_slice..EndianSlice$LT$gimli..endianity..LittleEndian$GT$$GT$$GT$$GT$$C$gimli..read..Error$GT$$C$$LP$$RF$core..result..Result$LT$core..option..Option$LT$alloc..boxed..Box$LT$addr2line..unit..DwoUnit$LT$gimli..read..endian_slice..EndianSlice$LT$gimli..endianity..LittleEndian$GT$$GT$$GT$$GT$$C$gimli..read..Error$GT$$C$core..result..Result$LT$core..option..Option$LT$alloc..boxed..Box$LT$addr2line..unit..DwoUnit$LT$gimli..read..endian_slice..EndianSlice$LT$gimli..endianity..LittleEndian$GT$$GT$$GT$$GT$$C$gimli..read..Error$GT$$RP$$GT$$GT$17hf93357a84d00fc7eE', symObjAddr: 0xA37C4, symBinAddr: 0x947C8, symSize: 0x4 }
  - { offset: 0x3198AE, size: 0x8, addend: 0x0, symName: '__ZN4core3ptr701drop_in_place$LT$core..result..Result$LT$$RF$core..result..Result$LT$core..option..Option$LT$alloc..boxed..Box$LT$addr2line..unit..DwoUnit$LT$gimli..read..endian_slice..EndianSlice$LT$gimli..endianity..LittleEndian$GT$$GT$$GT$$GT$$C$gimli..read..Error$GT$$C$$LP$$RF$core..result..Result$LT$core..option..Option$LT$alloc..boxed..Box$LT$addr2line..unit..DwoUnit$LT$gimli..read..endian_slice..EndianSlice$LT$gimli..endianity..LittleEndian$GT$$GT$$GT$$GT$$C$gimli..read..Error$GT$$C$core..result..Result$LT$core..option..Option$LT$alloc..boxed..Box$LT$addr2line..unit..DwoUnit$LT$gimli..read..endian_slice..EndianSlice$LT$gimli..endianity..LittleEndian$GT$$GT$$GT$$GT$$C$gimli..read..Error$GT$$RP$$GT$$GT$17hf93357a84d00fc7eE', symObjAddr: 0xA37C4, symBinAddr: 0x947C8, symSize: 0x4 }
  - { offset: 0x3198EA, size: 0x8, addend: 0x0, symName: '__ZN4core3ptr231drop_in_place$LT$core..result..Result$LT$core..option..Option$LT$alloc..boxed..Box$LT$addr2line..unit..DwoUnit$LT$gimli..read..endian_slice..EndianSlice$LT$gimli..endianity..LittleEndian$GT$$GT$$GT$$GT$$C$gimli..read..Error$GT$$GT$17h6cb514b393938b83E', symObjAddr: 0xA37C8, symBinAddr: 0x947CC, symSize: 0x11C }
  - { offset: 0x319CF5, size: 0x8, addend: 0x0, symName: '__ZN4core3ptr137drop_in_place$LT$gimli..read..dwarf..Unit$LT$gimli..read..endian_slice..EndianSlice$LT$gimli..endianity..LittleEndian$GT$$C$usize$GT$$GT$17ha92b70ae8706df64E', symObjAddr: 0xA38E4, symBinAddr: 0x948E8, symSize: 0xB4 }
  - { offset: 0x319FCF, size: 0x8, addend: 0x0, symName: '__ZN4core3ptr181drop_in_place$LT$core..option..Option$LT$gimli..read..line..IncompleteLineProgram$LT$gimli..read..endian_slice..EndianSlice$LT$gimli..endianity..LittleEndian$GT$$C$usize$GT$$GT$$GT$17h4072838a3a3bc029E', symObjAddr: 0xA3A28, symBinAddr: 0x94A2C, symSize: 0x80 }
  - { offset: 0x31A2A5, size: 0x8, addend: 0x0, symName: '__ZN4core3ptr55drop_in_place$LT$gimli..read..abbrev..Abbreviations$GT$17h8587e1680933f2fcE', symObjAddr: 0xA3AA8, symBinAddr: 0x94AAC, symSize: 0x21C }
  - { offset: 0x31A8E2, size: 0x8, addend: 0x0, symName: '__ZN4core3ptr60drop_in_place$LT$gimli..read..abbrev..AbbreviationsCache$GT$17h05dc331b510e23d9E', symObjAddr: 0xA3CC4, symBinAddr: 0x94CC8, symSize: 0xB8 }
  - { offset: 0x31AAC2, size: 0x8, addend: 0x0, symName: '__ZN4core3ptr280drop_in_place$LT$$LT$alloc..collections..btree..map..IntoIter$LT$K$C$V$C$A$GT$$u20$as$u20$core..ops..drop..Drop$GT$..drop..DropGuard$LT$u64$C$core..result..Result$LT$alloc..sync..Arc$LT$gimli..read..abbrev..Abbreviations$GT$$C$gimli..read..Error$GT$$C$alloc..alloc..Global$GT$$GT$17hcc27088c1e07f147E', symObjAddr: 0xA3F18, symBinAddr: 0x94F1C, symSize: 0x70 }
  - { offset: 0x31AC31, size: 0x8, addend: 0x0, symName: '__ZN4core3ptr130drop_in_place$LT$addr2line..unit..ResUnits$LT$gimli..read..endian_slice..EndianSlice$LT$gimli..endianity..LittleEndian$GT$$GT$$GT$17hb2ce511d8969e07fE', symObjAddr: 0xA43AC, symBinAddr: 0x95330, symSize: 0xBC }
  - { offset: 0x31AD5A, size: 0x8, addend: 0x0, symName: '__ZN4core3ptr130drop_in_place$LT$addr2line..unit..SupUnits$LT$gimli..read..endian_slice..EndianSlice$LT$gimli..endianity..LittleEndian$GT$$GT$$GT$17h3d17c95ef0deb2d2E', symObjAddr: 0xA4468, symBinAddr: 0x953EC, symSize: 0x140 }
  - { offset: 0x31B0E7, size: 0x8, addend: 0x0, symName: '__ZN4core3ptr71drop_in_place$LT$std..backtrace_rs..symbolize..gimli..macho..Object$GT$17h869151e7b414cfd4E', symObjAddr: 0xA45A8, symBinAddr: 0x9552C, symSize: 0xB4 }
  - { offset: 0x31B340, size: 0x8, addend: 0x0, symName: '__ZN4core3ptr93drop_in_place$LT$core..option..Option$LT$std..backtrace_rs..symbolize..gimli..Mapping$GT$$GT$17hd2c3071a4d1fdf1cE', symObjAddr: 0xA465C, symBinAddr: 0x955E0, symSize: 0x6C }
  - { offset: 0x31B3C0, size: 0x8, addend: 0x0, symName: '__ZN4core3ptr131drop_in_place$LT$$u5b$core..option..Option$LT$core..option..Option$LT$std..backtrace_rs..symbolize..gimli..Mapping$GT$$GT$$u5d$$GT$17hbc1f61e360e1245cE', symObjAddr: 0xA46C8, symBinAddr: 0x9564C, symSize: 0xE4 }
  - { offset: 0x31B469, size: 0x8, addend: 0x0, symName: '__ZN4core3ptr129drop_in_place$LT$addr2line..unit..SupUnit$LT$gimli..read..endian_slice..EndianSlice$LT$gimli..endianity..LittleEndian$GT$$GT$$GT$17hbd87d71db3a78ec7E', symObjAddr: 0xA47AC, symBinAddr: 0x95730, symSize: 0xB4 }
  - { offset: 0x31B7A5, size: 0x8, addend: 0x0, symName: '__ZN4core3ptr129drop_in_place$LT$addr2line..unit..ResUnit$LT$gimli..read..endian_slice..EndianSlice$LT$gimli..endianity..LittleEndian$GT$$GT$$GT$17h61db7baa14403ae7E', symObjAddr: 0xA4860, symBinAddr: 0x957E4, symSize: 0x138 }
  - { offset: 0x31BBF4, size: 0x8, addend: 0x0, symName: '__ZN4core3ptr42drop_in_place$LT$std..io..error..Error$GT$17hf851d76d73342388E', symObjAddr: 0xA4A5C, symBinAddr: 0x959E0, symSize: 0xA8 }
  - { offset: 0x31BDD7, size: 0x8, addend: 0x0, symName: '__ZN4core3ptr42drop_in_place$LT$alloc..string..String$GT$17hf6a0412a3add09b1E', symObjAddr: 0xA5118, symBinAddr: 0x9609C, symSize: 0x18 }
  - { offset: 0x31BDEE, size: 0x8, addend: 0x0, symName: '__ZN4core3ptr42drop_in_place$LT$alloc..string..String$GT$17hf6a0412a3add09b1E', symObjAddr: 0xA5118, symBinAddr: 0x9609C, symSize: 0x18 }
  - { offset: 0x31BE87, size: 0x8, addend: 0x0, symName: '__ZN4core3ptr82drop_in_place$LT$alloc..sync..ArcInner$LT$std..sys..fs..unix..InnerReadDir$GT$$GT$17hef996e0988305eb0E', symObjAddr: 0xA52DC, symBinAddr: 0x961B8, symSize: 0x60 }
  - { offset: 0x31C029, size: 0x8, addend: 0x0, symName: '__ZN4core3ptr159drop_in_place$LT$alloc..sync..ArcInner$LT$gimli..read..dwarf..Dwarf$LT$gimli..read..endian_slice..EndianSlice$LT$gimli..endianity..LittleEndian$GT$$GT$$GT$$GT$17h7de780a0c68b30e9E', symObjAddr: 0xA5490, symBinAddr: 0x9636C, symSize: 0x5C }
  - { offset: 0x31C0ED, size: 0x8, addend: 0x0, symName: '__ZN4core3ptr152drop_in_place$LT$alloc..vec..Vec$LT$addr2line..unit..ResUnit$LT$gimli..read..endian_slice..EndianSlice$LT$gimli..endianity..LittleEndian$GT$$GT$$GT$$GT$17h6c57a6c544237a87E', symObjAddr: 0xA7D50, symBinAddr: 0x98C2C, symSize: 0xB4 }
  - { offset: 0x31C22E, size: 0x8, addend: 0x0, symName: '__ZN4core3ptr152drop_in_place$LT$alloc..vec..Vec$LT$addr2line..unit..SupUnit$LT$gimli..read..endian_slice..EndianSlice$LT$gimli..endianity..LittleEndian$GT$$GT$$GT$$GT$17h5ad4c72a1632250dE', symObjAddr: 0xA7E04, symBinAddr: 0x98CE0, symSize: 0x150 }
  - { offset: 0x31C63D, size: 0x8, addend: 0x0, symName: '__ZN4core3ptr123drop_in_place$LT$addr2line..Context$LT$gimli..read..endian_slice..EndianSlice$LT$gimli..endianity..LittleEndian$GT$$GT$$GT$17h60120d8b61f786aeE', symObjAddr: 0xA86F8, symBinAddr: 0x995D4, symSize: 0x70 }
  - { offset: 0x31C88B, size: 0x8, addend: 0x0, symName: '__ZN4core3ptr144drop_in_place$LT$alloc..vec..Vec$LT$core..option..Option$LT$core..option..Option$LT$std..backtrace_rs..symbolize..gimli..Mapping$GT$$GT$$GT$$GT$17h76825e3abe87d450E', symObjAddr: 0xAB6B8, symBinAddr: 0x9C594, symSize: 0x70 }
  - { offset: 0x31CA1A, size: 0x8, addend: 0x0, symName: '__ZN4core3ptr44drop_in_place$LT$object..read..ObjectMap$GT$17h0847af56bc5df22dE', symObjAddr: 0xABDA0, symBinAddr: 0x9CC7C, symSize: 0x4C }
  - { offset: 0x31CB2C, size: 0x8, addend: 0x0, symName: '__ZN4core3ptr72drop_in_place$LT$core..option..Option$LT$object..read..ObjectMap$GT$$GT$17h379eb7351ada8367E', symObjAddr: 0xABDEC, symBinAddr: 0x9CCC8, symSize: 0x58 }
  - { offset: 0x31CEA5, size: 0x8, addend: 0x0, symName: '__ZN4core3ptr43drop_in_place$LT$std..io..error..Custom$GT$17h3012e6c4e42a6b08E', symObjAddr: 0xAEA20, symBinAddr: 0x9F83C, symSize: 0x3C }
  - { offset: 0x31CEBC, size: 0x8, addend: 0x0, symName: '__ZN4core3ptr43drop_in_place$LT$std..io..error..Custom$GT$17h3012e6c4e42a6b08E', symObjAddr: 0xAEA20, symBinAddr: 0x9F83C, symSize: 0x3C }
  - { offset: 0x31CED1, size: 0x8, addend: 0x0, symName: '__ZN4core3ptr43drop_in_place$LT$std..io..error..Custom$GT$17h3012e6c4e42a6b08E', symObjAddr: 0xAEA20, symBinAddr: 0x9F83C, symSize: 0x3C }
  - { offset: 0x31CEE6, size: 0x8, addend: 0x0, symName: '__ZN4core3ptr43drop_in_place$LT$std..io..error..Custom$GT$17h3012e6c4e42a6b08E', symObjAddr: 0xAEA20, symBinAddr: 0x9F83C, symSize: 0x3C }
  - { offset: 0x31CEFB, size: 0x8, addend: 0x0, symName: '__ZN4core3ptr43drop_in_place$LT$std..io..error..Custom$GT$17h3012e6c4e42a6b08E', symObjAddr: 0xAEA20, symBinAddr: 0x9F83C, symSize: 0x3C }
  - { offset: 0x31CFBC, size: 0x8, addend: 0x0, symName: '__ZN4core3ptr238drop_in_place$LT$alloc..boxed..convert..$LT$impl$u20$core..convert..From$LT$alloc..string..String$GT$$u20$for$u20$alloc..boxed..Box$LT$dyn$u20$core..error..Error$u2b$core..marker..Sync$u2b$core..marker..Send$GT$$GT$..from..StringError$GT$17h021cfce481c078aaE', symObjAddr: 0xAEA5C, symBinAddr: 0x9F878, symSize: 0x18 }
  - { offset: 0x31CFD3, size: 0x8, addend: 0x0, symName: '__ZN4core3ptr238drop_in_place$LT$alloc..boxed..convert..$LT$impl$u20$core..convert..From$LT$alloc..string..String$GT$$u20$for$u20$alloc..boxed..Box$LT$dyn$u20$core..error..Error$u2b$core..marker..Sync$u2b$core..marker..Send$GT$$GT$..from..StringError$GT$17h021cfce481c078aaE', symObjAddr: 0xAEA5C, symBinAddr: 0x9F878, symSize: 0x18 }
  - { offset: 0x31CFE8, size: 0x8, addend: 0x0, symName: '__ZN4core3ptr238drop_in_place$LT$alloc..boxed..convert..$LT$impl$u20$core..convert..From$LT$alloc..string..String$GT$$u20$for$u20$alloc..boxed..Box$LT$dyn$u20$core..error..Error$u2b$core..marker..Sync$u2b$core..marker..Send$GT$$GT$..from..StringError$GT$17h021cfce481c078aaE', symObjAddr: 0xAEA5C, symBinAddr: 0x9F878, symSize: 0x18 }
  - { offset: 0x31D066, size: 0x8, addend: 0x0, symName: '__ZN4core3ptr119drop_in_place$LT$std..io..default_write_fmt..Adapter$LT$std..io..cursor..Cursor$LT$$RF$mut$u20$$u5b$u8$u5d$$GT$$GT$$GT$17hd94de8f89bec7782E', symObjAddr: 0xAF9F8, symBinAddr: 0xA07DC, symSize: 0xA8 }
  - { offset: 0x31D2A1, size: 0x8, addend: 0x0, symName: '__ZN4core3ptr64drop_in_place$LT$std..sys..pal..unix..sync..mutex..AttrGuard$GT$17he7e52a9dfb22022eE', symObjAddr: 0xB0314, symBinAddr: 0xA0F34, symSize: 0x48 }
  - { offset: 0x31D395, size: 0x8, addend: 0x0, symName: '__ZN4core3ptr128drop_in_place$LT$core..result..Result$LT$$RF$std..thread..Thread$C$$LP$$RF$std..thread..Thread$C$std..thread..Thread$RP$$GT$$GT$17h75718b8337910809E', symObjAddr: 0xB0F90, symBinAddr: 0xA19A4, symSize: 0x28 }
  - { offset: 0x31D496, size: 0x8, addend: 0x0, symName: '__ZN4core3ptr48drop_in_place$LT$alloc..ffi..c_str..NulError$GT$17h4b149f15bda11918E', symObjAddr: 0xB0FE4, symBinAddr: 0xA19F8, symSize: 0x18 }
  - { offset: 0x31D4AD, size: 0x8, addend: 0x0, symName: '__ZN4core3ptr48drop_in_place$LT$alloc..ffi..c_str..NulError$GT$17h4b149f15bda11918E', symObjAddr: 0xB0FE4, symBinAddr: 0xA19F8, symSize: 0x18 }
  - { offset: 0x31D562, size: 0x8, addend: 0x0, symName: '__ZN4core3ptr71drop_in_place$LT$std..panicking..panic_handler..FormatStringPayload$GT$17h837459f0acb2901dE', symObjAddr: 0xB1DD8, symBinAddr: 0xA2748, symSize: 0x1C }
  - { offset: 0x31D6D3, size: 0x8, addend: 0x0, symName: '__ZN4core3ptr90drop_in_place$LT$std..io..buffered..bufwriter..BufWriter$LT$W$GT$..flush_buf..BufGuard$GT$17h43652e1c305a1ff2E', symObjAddr: 0xB3DA0, symBinAddr: 0xA436C, symSize: 0x5C }
  - { offset: 0x31D875, size: 0x8, addend: 0x0, symName: '__ZN4core3ptr194drop_in_place$LT$core..result..Result$LT$std..sync..poison..mutex..MutexGuard$LT$$LP$$RP$$GT$$C$std..sync..poison..PoisonError$LT$std..sync..poison..mutex..MutexGuard$LT$$LP$$RP$$GT$$GT$$GT$$GT$17h0271d4bb6050713eE', symObjAddr: 0xB45C0, symBinAddr: 0xA4B8C, symSize: 0x4C }
  - { offset: 0x31D8EA, size: 0x8, addend: 0x0, symName: '__ZN4core3ptr55drop_in_place$LT$std..sys..thread..unix..ThreadData$GT$17hceeb188d065e9c27E', symObjAddr: 0xB4C58, symBinAddr: 0xA5178, symSize: 0x90 }
  - { offset: 0x31DA6B, size: 0x8, addend: 0x0, symName: '__ZN4core3ptr80drop_in_place$LT$alloc..boxed..Box$LT$std..sys..thread..unix..ThreadData$GT$$GT$17hc10d9e1aca9f030cE', symObjAddr: 0xB4D94, symBinAddr: 0xA52B4, symSize: 0xA4 }
  - { offset: 0x31DC83, size: 0x8, addend: 0x0, symName: '__ZN4core3ptr61drop_in_place$LT$std..panicking..resume_unwind..RewrapBox$GT$17hee7b0556d18824b4E', symObjAddr: 0xB5058, symBinAddr: 0xA547C, symSize: 0x70 }
  - { offset: 0x31DE77, size: 0x8, addend: 0x0, symName: '__ZN4core3ptr193drop_in_place$LT$alloc..vec..into_iter..IntoIter$LT$alloc..boxed..Box$LT$dyn$u20$core..ops..function..FnOnce$LT$$LP$$RP$$GT$$u2b$Output$u20$$u3d$$u20$$LP$$RP$$u2b$core..marker..Send$GT$$GT$$GT$17hfd29fc62e247627dE', symObjAddr: 0xB5A64, symBinAddr: 0xA5DC8, symSize: 0x6C }
  - { offset: 0x31E068, size: 0x8, addend: 0x0, symName: '__ZN4core3ptr164drop_in_place$LT$$u5b$alloc..boxed..Box$LT$dyn$u20$core..ops..function..FnOnce$LT$$LP$$RP$$GT$$u2b$Output$u20$$u3d$$u20$$LP$$RP$$u2b$core..marker..Send$GT$$u5d$$GT$17h828fb0f2f6612312E', symObjAddr: 0xB5AD0, symBinAddr: 0xA5E34, symSize: 0xB0 }
  - { offset: 0x31E167, size: 0x8, addend: 0x0, symName: '__ZN4core3ptr177drop_in_place$LT$alloc..vec..Vec$LT$alloc..boxed..Box$LT$dyn$u20$core..ops..function..FnOnce$LT$$LP$$RP$$GT$$u2b$Output$u20$$u3d$$u20$$LP$$RP$$u2b$core..marker..Send$GT$$GT$$GT$17h169e22aae696f2bfE', symObjAddr: 0xB5B80, symBinAddr: 0xA5EE4, symSize: 0x70 }
  - { offset: 0x31E294, size: 0x8, addend: 0x0, symName: '__ZN4core3ptr154drop_in_place$LT$alloc..boxed..Box$LT$dyn$u20$core..ops..function..FnOnce$LT$$LP$$RP$$GT$$u2b$Output$u20$$u3d$$u20$$LP$$RP$$u2b$core..marker..Send$GT$$GT$17h9d9c2efebf9700dcE', symObjAddr: 0xB5BF0, symBinAddr: 0xA5F54, symSize: 0x78 }
  - { offset: 0x31E39A, size: 0x8, addend: 0x0, symName: '__ZN4core3ptr55drop_in_place$LT$std..thread..spawnhook..SpawnHooks$GT$17h69e736183a4f85f8E', symObjAddr: 0xB5F3C, symBinAddr: 0xA6264, symSize: 0x80 }
  - { offset: 0x31F6EE, size: 0x8, addend: 0x0, symName: '__ZN4core3ops8function6FnOnce40call_once$u7b$$u7b$vtable.shim$u7d$$u7d$17h38e4241864c84f10E', symObjAddr: 0x8FA2C, symBinAddr: 0x837BC, symSize: 0x4 }
  - { offset: 0x31F70B, size: 0x8, addend: 0x0, symName: '__ZN4core3ops8function6FnOnce40call_once$u7b$$u7b$vtable.shim$u7d$$u7d$17h38e4241864c84f10E', symObjAddr: 0x8FA2C, symBinAddr: 0x837BC, symSize: 0x4 }
  - { offset: 0x31F7AB, size: 0x8, addend: 0x0, symName: '__ZN4core3ops8function6FnOnce40call_once$u7b$$u7b$vtable.shim$u7d$$u7d$17h26c3c42f9f96ed46E', symObjAddr: 0xAF174, symBinAddr: 0x9FF90, symSize: 0xA4 }
  - { offset: 0x31F9F3, size: 0x8, addend: 0x0, symName: '__ZN4core3ops8function6FnOnce40call_once$u7b$$u7b$vtable.shim$u7d$$u7d$17h4e80488631bce74bE', symObjAddr: 0xB1AB0, symBinAddr: 0xA2420, symSize: 0xC }
  - { offset: 0x31FA44, size: 0x8, addend: 0x0, symName: '__ZN4core3ops8function6FnOnce40call_once$u7b$$u7b$vtable.shim$u7d$$u7d$17h08bb94a3fe447d9cE', symObjAddr: 0xB1AC8, symBinAddr: 0xA2438, symSize: 0xC }
  - { offset: 0x31FA94, size: 0x8, addend: 0x0, symName: '__ZN4core3ops8function6FnOnce40call_once$u7b$$u7b$vtable.shim$u7d$$u7d$17h7c3cb17ef918f233E', symObjAddr: 0xB409C, symBinAddr: 0xA4668, symSize: 0x6C }
  - { offset: 0x3200B7, size: 0x8, addend: 0x0, symName: '__ZN4core4cell4once17OnceCell$LT$T$GT$8try_init17hf4832393ad19d4f9E', symObjAddr: 0x8F108, symBinAddr: 0xB2F40, symSize: 0x110 }
  - { offset: 0x3203F4, size: 0x8, addend: 0x0, symName: '__ZN4core4cell4once17OnceCell$LT$T$GT$8try_init17h4233e7fefa30ef91E', symObjAddr: 0x97C34, symBinAddr: 0xB3240, symSize: 0x1970 }
  - { offset: 0x3237F5, size: 0x8, addend: 0x0, symName: '__ZN4core4cell4once17OnceCell$LT$T$GT$8try_init17hcb2a62d93e38dee1E', symObjAddr: 0x9BAA0, symBinAddr: 0xB4C2C, symSize: 0x60 }
  - { offset: 0x323813, size: 0x8, addend: 0x0, symName: '__ZN4core4cell4once17OnceCell$LT$T$GT$8try_init17hcb2a62d93e38dee1E', symObjAddr: 0x9BAA0, symBinAddr: 0xB4C2C, symSize: 0x60 }
  - { offset: 0x323828, size: 0x8, addend: 0x0, symName: '__ZN4core4cell4once17OnceCell$LT$T$GT$8try_init17hcb2a62d93e38dee1E', symObjAddr: 0x9BAA0, symBinAddr: 0xB4C2C, symSize: 0x60 }
  - { offset: 0x32383C, size: 0x8, addend: 0x0, symName: '__ZN4core4cell4once17OnceCell$LT$T$GT$8try_init17hcb2a62d93e38dee1E', symObjAddr: 0x9BAA0, symBinAddr: 0xB4C2C, symSize: 0x60 }
  - { offset: 0x3238E0, size: 0x8, addend: 0x0, symName: '__ZN4core4cell4once17OnceCell$LT$T$GT$8try_init17hc6312a19a1a77d35E', symObjAddr: 0x9BED4, symBinAddr: 0xB4C8C, symSize: 0xC0C }
  - { offset: 0x3251EC, size: 0x8, addend: 0x0, symName: '__ZN4core4cell4once17OnceCell$LT$T$GT$8try_init17h096ee8d6ab5f9ab5E', symObjAddr: 0x9CAE0, symBinAddr: 0xB5898, symSize: 0x63C }
  - { offset: 0x325CF7, size: 0x8, addend: 0x0, symName: '__ZN4core4cell4once17OnceCell$LT$T$GT$8try_init17h0fe3646e0b88f6ceE', symObjAddr: 0xA432C, symBinAddr: 0xB5ED4, symSize: 0x80 }
  - { offset: 0x327FD6, size: 0x8, addend: 0x0, symName: '__ZN44_$LT$$RF$T$u20$as$u20$core..fmt..Display$GT$3fmt17h97ddbbc1a338291fE', symObjAddr: 0x8EE30, symBinAddr: 0x82DD4, symSize: 0x74 }
  - { offset: 0x328047, size: 0x8, addend: 0x0, symName: '__ZN44_$LT$$RF$T$u20$as$u20$core..fmt..Display$GT$3fmt17h42b41cde78dd7a40E', symObjAddr: 0x8EEA4, symBinAddr: 0x82E48, symSize: 0x10 }
  - { offset: 0x3280DA, size: 0x8, addend: 0x0, symName: '__ZN50_$LT$$BP$mut$u20$T$u20$as$u20$core..fmt..Debug$GT$3fmt17hc506ef24e45fcfffE', symObjAddr: 0x926C0, symBinAddr: 0x86450, symSize: 0xBC }
  - { offset: 0x3281F5, size: 0x8, addend: 0x0, symName: '__ZN42_$LT$$RF$T$u20$as$u20$core..fmt..Debug$GT$3fmt17h1afb9163f1905b06E', symObjAddr: 0xA50F8, symBinAddr: 0x9607C, symSize: 0x10 }
  - { offset: 0x328226, size: 0x8, addend: 0x0, symName: '__ZN42_$LT$$RF$T$u20$as$u20$core..fmt..Debug$GT$3fmt17h624b3b1b2bc3ccaaE', symObjAddr: 0xA5108, symBinAddr: 0x9608C, symSize: 0x10 }
  - { offset: 0x328240, size: 0x8, addend: 0x0, symName: '__ZN42_$LT$$RF$T$u20$as$u20$core..fmt..Debug$GT$3fmt17h962ee5d805df0a43E', symObjAddr: 0xB038C, symBinAddr: 0xA0F7C, symSize: 0xCC }
  - { offset: 0x328301, size: 0x8, addend: 0x0, symName: '__ZN42_$LT$$RF$T$u20$as$u20$core..fmt..Debug$GT$3fmt17h1657bda62079795fE', symObjAddr: 0xB1044, symBinAddr: 0xA1A58, symSize: 0x1F4 }
  - { offset: 0x32858B, size: 0x8, addend: 0x0, symName: '__ZN42_$LT$$RF$T$u20$as$u20$core..fmt..Debug$GT$3fmt17hbd1e035ac7e08f25E', symObjAddr: 0xB1238, symBinAddr: 0xA1C4C, symSize: 0x150 }
  - { offset: 0x3286E7, size: 0x8, addend: 0x0, symName: '__ZN4core3fmt3num50_$LT$impl$u20$core..fmt..Debug$u20$for$u20$i32$GT$3fmt17h0ee72d503607d7feE.2262', symObjAddr: 0xA516C, symBinAddr: 0x960F0, symSize: 0xC8 }
  - { offset: 0x3287B1, size: 0x8, addend: 0x0, symName: '__ZN4core3fmt3num52_$LT$impl$u20$core..fmt..Debug$u20$for$u20$usize$GT$3fmt17hecd777b1c3510085E.2280', symObjAddr: 0xB1388, symBinAddr: 0xA1D9C, symSize: 0x1DC }
  - { offset: 0x32891A, size: 0x8, addend: 0x0, symName: __ZN4core3fmt5Write10write_char17hca427d9223c5b6e1E, symObjAddr: 0xAFBA4, symBinAddr: 0xA0988, symSize: 0x19C }
  - { offset: 0x328CD0, size: 0x8, addend: 0x0, symName: __ZN4core3fmt5Write9write_fmt17h0e54e39e3cec6689E, symObjAddr: 0xAFD40, symBinAddr: 0xA0B24, symSize: 0x1C }
  - { offset: 0x328D29, size: 0x8, addend: 0x0, symName: __ZN4core3fmt5Write10write_char17h69d96c692ad3d067E, symObjAddr: 0xB16C0, symBinAddr: 0xA20C8, symSize: 0x1E0 }
  - { offset: 0x329056, size: 0x8, addend: 0x0, symName: __ZN4core3fmt5Write9write_fmt17h19fd30b4ad025d60E, symObjAddr: 0xB18A0, symBinAddr: 0xA22A8, symSize: 0x1C }
  - { offset: 0x3290B0, size: 0x8, addend: 0x0, symName: __ZN4core3fmt5Write9write_fmt17h2a94cca2598c1fb1E, symObjAddr: 0xB2188, symBinAddr: 0xA2AF8, symSize: 0x1C }
  - { offset: 0x329109, size: 0x8, addend: 0x0, symName: __ZN4core3fmt5Write10write_char17hea8d74b23fe03b68E, symObjAddr: 0xB2DB8, symBinAddr: 0xA3700, symSize: 0x1B4 }
  - { offset: 0x32935D, size: 0x8, addend: 0x0, symName: __ZN4core3fmt5Write9write_fmt17h1ad028e9e2596ed7E, symObjAddr: 0xB2F6C, symBinAddr: 0xA38B4, symSize: 0x1C }
  - { offset: 0x3293B6, size: 0x8, addend: 0x0, symName: __ZN4core3fmt5Write10write_char17h69a3578dfe4b32e9E, symObjAddr: 0xB3ECC, symBinAddr: 0xA4498, symSize: 0x1B4 }
  - { offset: 0x32960A, size: 0x8, addend: 0x0, symName: __ZN4core3fmt5Write9write_fmt17h09d57f97e1e98aabE, symObjAddr: 0xB4080, symBinAddr: 0xA464C, symSize: 0x1C }
  - { offset: 0x32A879, size: 0x8, addend: 0x0, symName: __ZN4core5slice4sort8unstable7ipnsort17h5d7543a75d941cffE, symObjAddr: 0xAB728, symBinAddr: 0x9C604, symSize: 0xC4 }
  - { offset: 0x32A896, size: 0x8, addend: 0x0, symName: __ZN4core5slice4sort8unstable7ipnsort17h5d7543a75d941cffE, symObjAddr: 0xAB728, symBinAddr: 0x9C604, symSize: 0xC4 }
  - { offset: 0x32A9C1, size: 0x8, addend: 0x0, symName: __ZN4core5slice4sort8unstable7ipnsort17h62c8a47683a638f3E, symObjAddr: 0xAB7EC, symBinAddr: 0x9C6C8, symSize: 0x174 }
  - { offset: 0x32ACF1, size: 0x8, addend: 0x0, symName: __ZN4core5slice4sort8unstable9quicksort9quicksort17h98476d76dc825101E, symObjAddr: 0xACC64, symBinAddr: 0x9DB40, symSize: 0x558 }
  - { offset: 0x32B86B, size: 0x8, addend: 0x0, symName: __ZN4core5slice4sort8unstable9quicksort9quicksort17h0ba40b7285a59f52E, symObjAddr: 0xAD9D8, symBinAddr: 0x9E8B4, symSize: 0x3F8 }
  - { offset: 0x32C076, size: 0x8, addend: 0x0, symName: __ZN4core5slice4sort8unstable8heapsort8heapsort17h5ff97107d3f154adE, symObjAddr: 0xAD5C4, symBinAddr: 0x9E4A0, symSize: 0x160 }
  - { offset: 0x32C36E, size: 0x8, addend: 0x0, symName: __ZN4core5slice4sort8unstable8heapsort8heapsort17h301a034dfcc890faE, symObjAddr: 0xAE278, symBinAddr: 0x9F154, symSize: 0x100 }
  - { offset: 0x32C586, size: 0x8, addend: 0x0, symName: __ZN4core5slice4sort6stable14driftsort_main17h7b5faaae84c7cbb7E, symObjAddr: 0x999F0, symBinAddr: 0x8BD18, symSize: 0x120 }
  - { offset: 0x32C9C3, size: 0x8, addend: 0x0, symName: __ZN4core5slice4sort6stable5drift4sort17h6874b5ff9a1e9842E, symObjAddr: 0x9A578, symBinAddr: 0x8C824, symSize: 0x4EC }
  - { offset: 0x32D0C3, size: 0x8, addend: 0x0, symName: __ZN4core5slice4sort6stable5drift4sort17h0b0941fd53d2eb36E, symObjAddr: 0xA0030, symBinAddr: 0x91034, symSize: 0x5FC }
  - { offset: 0x32D80B, size: 0x8, addend: 0x0, symName: __ZN4core5slice4sort6stable5drift4sort17hd24339b1ba8572adE, symObjAddr: 0xA29D4, symBinAddr: 0x939D8, symSize: 0x530 }
  - { offset: 0x32DEF7, size: 0x8, addend: 0x0, symName: __ZN4core5slice4sort6stable5drift4sort17hacafb250fe287f02E, symObjAddr: 0xA99BC, symBinAddr: 0x9A898, symSize: 0x4EC }
  - { offset: 0x32E5F7, size: 0x8, addend: 0x0, symName: __ZN4core5slice4sort6stable5drift4sort17hb5c3f298be29b63dE, symObjAddr: 0xAA650, symBinAddr: 0x9B52C, symSize: 0x4D4 }
  - { offset: 0x32EC67, size: 0x8, addend: 0x0, symName: __ZN4core5slice4sort6stable5drift4sort17h085f3b0b9c131daaE, symObjAddr: 0xABE44, symBinAddr: 0x9CD20, symSize: 0x538 }
  - { offset: 0x32F57F, size: 0x8, addend: 0x0, symName: __ZN4core5slice4sort6stable9quicksort9quicksort17h99c833017676aa53E, symObjAddr: 0x9AA64, symBinAddr: 0x8CD10, symSize: 0x6D4 }
  - { offset: 0x330030, size: 0x8, addend: 0x0, symName: __ZN4core5slice4sort6stable9quicksort9quicksort17hd0cb711591baa19cE, symObjAddr: 0xA062C, symBinAddr: 0x91630, symSize: 0x728 }
  - { offset: 0x33075F, size: 0x8, addend: 0x0, symName: __ZN4core5slice4sort6stable9quicksort9quicksort17h9b2801c31f3c9e70E, symObjAddr: 0xA2F04, symBinAddr: 0x93F08, symSize: 0x7F0 }
  - { offset: 0x3312F0, size: 0x8, addend: 0x0, symName: __ZN4core5slice4sort6stable9quicksort9quicksort17ha3ab17a848a79a77E, symObjAddr: 0xA9EA8, symBinAddr: 0x9AD84, symSize: 0x6DC }
  - { offset: 0x331DA1, size: 0x8, addend: 0x0, symName: __ZN4core5slice4sort6stable9quicksort9quicksort17h6b022558501172b1E, symObjAddr: 0xAAB24, symBinAddr: 0x9BA00, symSize: 0x810 }
  - { offset: 0x332CE5, size: 0x8, addend: 0x0, symName: __ZN4core5slice4sort6stable9quicksort9quicksort17h77925009546caf48E, symObjAddr: 0xAC37C, symBinAddr: 0x9D258, symSize: 0x818 }
  - { offset: 0x333884, size: 0x8, addend: 0x0, symName: __ZN4core5slice4sort6stable14driftsort_main17ha9c3ec71caecf83fE, symObjAddr: 0x9F084, symBinAddr: 0x90088, symSize: 0x11C }
  - { offset: 0x333B52, size: 0x8, addend: 0x0, symName: __ZN4core5slice4sort6stable14driftsort_main17had35389d5dd234b1E, symObjAddr: 0xA2508, symBinAddr: 0x9350C, symSize: 0x12C }
  - { offset: 0x333E18, size: 0x8, addend: 0x0, symName: __ZN4core5slice4sort6stable14driftsort_main17h7ade04ab22cdd8f2E, symObjAddr: 0xA5844, symBinAddr: 0x96720, symSize: 0x11C }
  - { offset: 0x3340E6, size: 0x8, addend: 0x0, symName: __ZN4core5slice4sort6stable14driftsort_main17he0ade99dc0cb88f1E, symObjAddr: 0xA5E78, symBinAddr: 0x96D54, symSize: 0x11C }
  - { offset: 0x3343B4, size: 0x8, addend: 0x0, symName: __ZN4core5slice4sort6stable14driftsort_main17hda7ba3b19d6fc900E, symObjAddr: 0xABA54, symBinAddr: 0x9C930, symSize: 0x12C }
  - { offset: 0x33474F, size: 0x8, addend: 0x0, symName: __ZN4core5slice4sort6shared9smallsort25insertion_sort_shift_left17h739d96d2d11fa27bE, symObjAddr: 0x99B10, symBinAddr: 0x8BE38, symSize: 0xA4 }
  - { offset: 0x3348F2, size: 0x8, addend: 0x0, symName: __ZN4core5slice4sort6shared9smallsort25insertion_sort_shift_left17hc977fb5c0688bf20E, symObjAddr: 0x9F1A0, symBinAddr: 0x901A4, symSize: 0xB8 }
  - { offset: 0x334A46, size: 0x8, addend: 0x0, symName: __ZN4core5slice4sort6shared9smallsort12sort4_stable17h139ca5c859589941E, symObjAddr: 0xA0D54, symBinAddr: 0x91D58, symSize: 0x194 }
  - { offset: 0x334CB8, size: 0x8, addend: 0x0, symName: __ZN4core5slice4sort6shared9smallsort12sort8_stable17h18703b6069e9c4ebE, symObjAddr: 0xAB334, symBinAddr: 0x9C210, symSize: 0x2B8 }
  - { offset: 0x335162, size: 0x8, addend: 0x0, symName: __ZN4core5slice4sort6shared9smallsort25insertion_sort_shift_left17hcc529bd7abac8e25E, symObjAddr: 0xAB960, symBinAddr: 0x9C83C, symSize: 0xF4 }
  - { offset: 0x335326, size: 0x8, addend: 0x0, symName: __ZN4core5slice4sort6shared9smallsort25insertion_sort_shift_left17hdfffd6f60b981efdE, symObjAddr: 0xABB80, symBinAddr: 0x9CA5C, symSize: 0xB8 }
  - { offset: 0x3354C1, size: 0x8, addend: 0x0, symName: __ZN4core5slice4sort6shared9smallsort18small_sort_general17haab78fd802d5e9baE, symObjAddr: 0xAD1BC, symBinAddr: 0x9E098, symSize: 0x408 }
  - { offset: 0x3359D1, size: 0x8, addend: 0x0, symName: __ZN4core5slice4sort6shared9smallsort12sort4_stable17h0da1ce099c210ce9E, symObjAddr: 0xAD858, symBinAddr: 0x9E734, symSize: 0x180 }
  - { offset: 0x335DFE, size: 0x8, addend: 0x0, symName: __ZN4core5slice4sort6shared9smallsort18small_sort_general17h80ae0a6b297f62c8E, symObjAddr: 0xADDD0, symBinAddr: 0x9ECAC, symSize: 0x4A8 }
  - { offset: 0x3364EF, size: 0x8, addend: 0x0, symName: __ZN4core5slice4sort6shared5pivot11median3_rec17hd942f779595c303fE, symObjAddr: 0x9B138, symBinAddr: 0x8D3E4, symSize: 0xCC }
  - { offset: 0x3365F2, size: 0x8, addend: 0x0, symName: __ZN4core5slice4sort6shared5pivot11median3_rec17h4d263b5d0566d045E, symObjAddr: 0xA0EE8, symBinAddr: 0x91EEC, symSize: 0x11C }
  - { offset: 0x3366F6, size: 0x8, addend: 0x0, symName: __ZN4core5slice4sort6shared5pivot11median3_rec17h6d7ff4f508e12b82E, symObjAddr: 0xA36F4, symBinAddr: 0x946F8, symSize: 0xD0 }
  - { offset: 0x3367F9, size: 0x8, addend: 0x0, symName: __ZN4core5slice4sort6shared5pivot11median3_rec17h134b703ff6d407b9E, symObjAddr: 0xAA584, symBinAddr: 0x9B460, symSize: 0xCC }
  - { offset: 0x3368FC, size: 0x8, addend: 0x0, symName: __ZN4core5slice4sort6shared5pivot11median3_rec17hdd0991ed80ab6e2dE, symObjAddr: 0xAB5EC, symBinAddr: 0x9C4C8, symSize: 0xCC }
  - { offset: 0x336A2B, size: 0x8, addend: 0x0, symName: __ZN4core5slice4sort6shared5pivot11median3_rec17h988b88348782b889E, symObjAddr: 0xACB94, symBinAddr: 0x9DA70, symSize: 0xD0 }
  - { offset: 0x336B2E, size: 0x8, addend: 0x0, symName: __ZN4core5slice4sort6shared5pivot11median3_rec17hb44c311f8a001b16E, symObjAddr: 0xAD724, symBinAddr: 0x9E600, symSize: 0x134 }
  - { offset: 0x336D5F, size: 0x8, addend: 0x0, symName: __ZN4core5slice4sort6shared5pivot11median3_rec17h1e6e6b5a8f0d3c9dE, symObjAddr: 0xAE378, symBinAddr: 0x9F254, symSize: 0xD0 }
  - { offset: 0x336F74, size: 0x8, addend: 0x0, symName: '__ZN36_$LT$T$u20$as$u20$core..any..Any$GT$7type_id17hb44d4c6033683273E', symObjAddr: 0xB1954, symBinAddr: 0xA22C4, symSize: 0x14 }
  - { offset: 0x336F91, size: 0x8, addend: 0x0, symName: '__ZN36_$LT$T$u20$as$u20$core..any..Any$GT$7type_id17hb44d4c6033683273E', symObjAddr: 0xB1954, symBinAddr: 0xA22C4, symSize: 0x14 }
  - { offset: 0x336FA3, size: 0x8, addend: 0x0, symName: '__ZN36_$LT$T$u20$as$u20$core..any..Any$GT$7type_id17ha81a52e3b43c77a4E', symObjAddr: 0xB1FD4, symBinAddr: 0xA2944, symSize: 0x14 }
  - { offset: 0x336FC0, size: 0x8, addend: 0x0, symName: '__ZN36_$LT$T$u20$as$u20$core..any..Any$GT$7type_id17ha81a52e3b43c77a4E', symObjAddr: 0xB1FD4, symBinAddr: 0xA2944, symSize: 0x14 }
  - { offset: 0x336FD2, size: 0x8, addend: 0x0, symName: '__ZN36_$LT$T$u20$as$u20$core..any..Any$GT$7type_id17h3037b93a9e8ef4a5E', symObjAddr: 0xB5108, symBinAddr: 0xA552C, symSize: 0x14 }
  - { offset: 0x336FEF, size: 0x8, addend: 0x0, symName: '__ZN36_$LT$T$u20$as$u20$core..any..Any$GT$7type_id17h3037b93a9e8ef4a5E', symObjAddr: 0xB5108, symBinAddr: 0xA552C, symSize: 0x14 }
  - { offset: 0x337E38, size: 0x8, addend: 0x0, symName: __ZN4core5panic12PanicPayload6as_str17h1071335dd01dc3a9E, symObjAddr: 0xB1F0C, symBinAddr: 0xA287C, symSize: 0x8 }
  - { offset: 0x337F30, size: 0x8, addend: 0x0, symName: '__ZN55_$LT$$RF$str$u20$as$u20$core..str..pattern..Pattern$GT$15is_contained_in17hc0a7ac267447aa23E', symObjAddr: 0xAEDE4, symBinAddr: 0x9FC00, symSize: 0x390 }
  - { offset: 0x338524, size: 0x8, addend: 0x0, symName: __ZN4core5error5Error7type_id17hcfbfefb73a50f493E, symObjAddr: 0xAEA74, symBinAddr: 0x9F890, symSize: 0x14 }
  - { offset: 0x338541, size: 0x8, addend: 0x0, symName: __ZN4core5error5Error7type_id17hcfbfefb73a50f493E, symObjAddr: 0xAEA74, symBinAddr: 0x9F890, symSize: 0x14 }
  - { offset: 0x338553, size: 0x8, addend: 0x0, symName: __ZN4core5error5Error11description17hcf90faf3be666b0fE, symObjAddr: 0xAEA88, symBinAddr: 0x9F8A4, symSize: 0x10 }
  - { offset: 0x33856D, size: 0x8, addend: 0x0, symName: __ZN4core5error5Error5cause17h9d8e707b615b1dccE, symObjAddr: 0xAEA98, symBinAddr: 0x9F8B4, symSize: 0x8 }
  - { offset: 0x338587, size: 0x8, addend: 0x0, symName: __ZN4core5error5Error7provide17hf6f11971797fe577E, symObjAddr: 0xAEAA0, symBinAddr: 0x9F8BC, symSize: 0x4 }
  - { offset: 0x3385A8, size: 0x8, addend: 0x0, symName: __ZN4core9panicking13assert_failed17h380ae13b39a456adE, symObjAddr: 0xB035C, symBinAddr: 0xB62B8, symSize: 0x30 }
  - { offset: 0x338736, size: 0x8, addend: 0x0, symName: '__ZN5alloc4sync16Arc$LT$T$C$A$GT$9drop_slow17h0590c51487cc0e78E', symObjAddr: 0x8F094, symBinAddr: 0x8302C, symSize: 0x74 }
  - { offset: 0x338977, size: 0x8, addend: 0x0, symName: '__ZN5alloc4sync16Arc$LT$T$C$A$GT$9drop_slow17h58bfec597942d7c0E', symObjAddr: 0x96544, symBinAddr: 0x8A1DC, symSize: 0xB8 }
  - { offset: 0x338CE1, size: 0x8, addend: 0x0, symName: '__ZN5alloc4sync16Arc$LT$T$C$A$GT$9drop_slow17h71ce5645e9f4e2faE', symObjAddr: 0x9B9D8, symBinAddr: 0x8DC84, symSize: 0xC8 }
  - { offset: 0x338F03, size: 0x8, addend: 0x0, symName: '__ZN5alloc4sync16Arc$LT$T$C$A$GT$9drop_slow17h455f000bacbe8778E', symObjAddr: 0xA3998, symBinAddr: 0x9499C, symSize: 0x90 }
  - { offset: 0x339111, size: 0x8, addend: 0x0, symName: '__ZN5alloc4sync16Arc$LT$T$C$A$GT$9drop_slow17hc514d4cb9a32a567E', symObjAddr: 0xB0FB8, symBinAddr: 0xA19CC, symSize: 0x2C }
  - { offset: 0x33912F, size: 0x8, addend: 0x0, symName: '__ZN5alloc4sync16Arc$LT$T$C$A$GT$9drop_slow17hc514d4cb9a32a567E', symObjAddr: 0xB0FB8, symBinAddr: 0xA19CC, symSize: 0x2C }
  - { offset: 0x339144, size: 0x8, addend: 0x0, symName: '__ZN5alloc4sync16Arc$LT$T$C$A$GT$9drop_slow17hc514d4cb9a32a567E', symObjAddr: 0xB0FB8, symBinAddr: 0xA19CC, symSize: 0x2C }
  - { offset: 0x339159, size: 0x8, addend: 0x0, symName: '__ZN5alloc4sync16Arc$LT$T$C$A$GT$9drop_slow17hc514d4cb9a32a567E', symObjAddr: 0xB0FB8, symBinAddr: 0xA19CC, symSize: 0x2C }
  - { offset: 0x339233, size: 0x8, addend: 0x0, symName: '__ZN5alloc4sync16Arc$LT$T$C$A$GT$9drop_slow17h5c6978888e70d739E', symObjAddr: 0xB5938, symBinAddr: 0xA5C9C, symSize: 0x12C }
  - { offset: 0x33989A, size: 0x8, addend: 0x0, symName: '__ZN72_$LT$alloc..boxed..Box$LT$T$C$A$GT$$u20$as$u20$core..ops..drop..Drop$GT$4drop17he99d65feca17ec7dE', symObjAddr: 0xB4E38, symBinAddr: 0xA5358, symSize: 0x8 }
  - { offset: 0x3398B1, size: 0x8, addend: 0x0, symName: '__ZN72_$LT$alloc..boxed..Box$LT$T$C$A$GT$$u20$as$u20$core..ops..drop..Drop$GT$4drop17he99d65feca17ec7dE', symObjAddr: 0xB4E38, symBinAddr: 0xA5358, symSize: 0x8 }
  - { offset: 0x3398C6, size: 0x8, addend: 0x0, symName: '__ZN72_$LT$alloc..boxed..Box$LT$T$C$A$GT$$u20$as$u20$core..ops..drop..Drop$GT$4drop17he99d65feca17ec7dE', symObjAddr: 0xB4E38, symBinAddr: 0xA5358, symSize: 0x8 }
  - { offset: 0x33A61D, size: 0x8, addend: 0x0, symName: '__ZN5alloc7raw_vec19RawVec$LT$T$C$A$GT$8grow_one17h9802e43fbb60e7e6E', symObjAddr: 0x9298C, symBinAddr: 0x8671C, symSize: 0xB4 }
  - { offset: 0x33A980, size: 0x8, addend: 0x0, symName: '__ZN5alloc7raw_vec19RawVec$LT$T$C$A$GT$8grow_one17hb2be22af9cda6662E', symObjAddr: 0x997E0, symBinAddr: 0x8BB08, symSize: 0xC0 }
  - { offset: 0x33AAA2, size: 0x8, addend: 0x0, symName: '__ZN5alloc7raw_vec19RawVec$LT$T$C$A$GT$8grow_one17hd2d74bafac7eee3aE', symObjAddr: 0x99BB4, symBinAddr: 0x8BEDC, symSize: 0xB4 }
  - { offset: 0x33ABB8, size: 0x8, addend: 0x0, symName: '__ZN5alloc7raw_vec19RawVec$LT$T$C$A$GT$8grow_one17h6a11dc32c551f476E', symObjAddr: 0x99C68, symBinAddr: 0x8BF90, symSize: 0xB0 }
  - { offset: 0x33ADB4, size: 0x8, addend: 0x0, symName: '__ZN5alloc7raw_vec19RawVec$LT$T$C$A$GT$8grow_one17h1b69d6d310ed9821E', symObjAddr: 0xA15C0, symBinAddr: 0x925C4, symSize: 0xB4 }
  - { offset: 0x33AECA, size: 0x8, addend: 0x0, symName: '__ZN5alloc7raw_vec19RawVec$LT$T$C$A$GT$8grow_one17h3f245f84b3ab39cdE', symObjAddr: 0xA2298, symBinAddr: 0x9329C, symSize: 0xB0 }
  - { offset: 0x33B002, size: 0x8, addend: 0x0, symName: '__ZN5alloc7raw_vec19RawVec$LT$T$C$A$GT$8grow_one17ha883ecedc3c284a5E', symObjAddr: 0xA2634, symBinAddr: 0x93638, symSize: 0xB4 }
  - { offset: 0x33B118, size: 0x8, addend: 0x0, symName: '__ZN5alloc7raw_vec19RawVec$LT$T$C$A$GT$8grow_one17h0a83f3c2f81107feE', symObjAddr: 0xA26E8, symBinAddr: 0x936EC, symSize: 0xBC }
  - { offset: 0x33B22E, size: 0x8, addend: 0x0, symName: '__ZN5alloc7raw_vec19RawVec$LT$T$C$A$GT$8grow_one17h2538c3a76f8332d4E', symObjAddr: 0xA3F88, symBinAddr: 0x94F8C, symSize: 0xB0 }
  - { offset: 0x33B367, size: 0x8, addend: 0x0, symName: '__ZN5alloc7raw_vec19RawVec$LT$T$C$A$GT$8grow_one17hbdba0ad51fefaec6E', symObjAddr: 0xA5794, symBinAddr: 0x96670, symSize: 0xB0 }
  - { offset: 0x33B4C7, size: 0x8, addend: 0x0, symName: '__ZN5alloc7raw_vec19RawVec$LT$T$C$A$GT$8grow_one17h6bc2282058cd4db2E', symObjAddr: 0xA7BE0, symBinAddr: 0x98ABC, symSize: 0xB4 }
  - { offset: 0x33B5F1, size: 0x8, addend: 0x0, symName: '__ZN5alloc7raw_vec19RawVec$LT$T$C$A$GT$8grow_one17h35b443c82a84d8f5E', symObjAddr: 0xA7C94, symBinAddr: 0x98B70, symSize: 0xBC }
  - { offset: 0x33B707, size: 0x8, addend: 0x0, symName: '__ZN5alloc7raw_vec19RawVec$LT$T$C$A$GT$8grow_one17hae47f4ea8854854fE', symObjAddr: 0xA7F54, symBinAddr: 0x98E30, symSize: 0xBC }
  - { offset: 0x33B845, size: 0x8, addend: 0x0, symName: '__ZN5alloc7raw_vec19RawVec$LT$T$C$A$GT$8grow_one17h94e06e2249cf7166E', symObjAddr: 0xA8BB4, symBinAddr: 0x99A90, symSize: 0xB8 }
  - { offset: 0x33B95A, size: 0x8, addend: 0x0, symName: '__ZN5alloc7raw_vec19RawVec$LT$T$C$A$GT$8grow_one17h6539c0c099fe1986E', symObjAddr: 0xA990C, symBinAddr: 0x9A7E8, symSize: 0xB0 }
  - { offset: 0x33BA92, size: 0x8, addend: 0x0, symName: '__ZN5alloc7raw_vec19RawVec$LT$T$C$A$GT$8grow_one17hf85e8df1e2a2997cE', symObjAddr: 0xABC38, symBinAddr: 0x9CB14, symSize: 0xB0 }
  - { offset: 0x33BBBC, size: 0x8, addend: 0x0, symName: '__ZN5alloc7raw_vec19RawVec$LT$T$C$A$GT$8grow_one17hbb242b5a27216b95E', symObjAddr: 0xABCE8, symBinAddr: 0x9CBC4, symSize: 0xB8 }
  - { offset: 0x33BD09, size: 0x8, addend: 0x0, symName: '__ZN5alloc7raw_vec19RawVec$LT$T$C$A$GT$8grow_one17h09f72ff2edcb7145E', symObjAddr: 0xB0654, symBinAddr: 0xA1244, symSize: 0xB0 }
  - { offset: 0x33BF5F, size: 0x8, addend: 0x0, symName: '__ZN5alloc7raw_vec20RawVecInner$LT$A$GT$7reserve21do_reserve_and_handle17h27d899f8eb2799c8E', symObjAddr: 0x92A40, symBinAddr: 0xB3148, symSize: 0xF8 }
  - { offset: 0x33C112, size: 0x8, addend: 0x0, symName: __ZN5alloc7raw_vec11finish_grow17h1fe80a46fbbf8c9aE, symObjAddr: 0x9A2DC, symBinAddr: 0xB4BB0, symSize: 0x7C }
  - { offset: 0x33D3A3, size: 0x8, addend: 0x0, symName: '__ZN58_$LT$alloc..string..String$u20$as$u20$core..fmt..Debug$GT$3fmt17h762f034d0b19a212E.2261', symObjAddr: 0xA5130, symBinAddr: 0x960B4, symSize: 0x10 }
  - { offset: 0x33D472, size: 0x8, addend: 0x0, symName: '__ZN60_$LT$alloc..string..String$u20$as$u20$core..fmt..Display$GT$3fmt17h40cb6c2d63a0400fE.2268', symObjAddr: 0xB0198, symBinAddr: 0xA0DB8, symSize: 0x10 }
  - { offset: 0x33D555, size: 0x8, addend: 0x0, symName: '__ZN58_$LT$alloc..string..String$u20$as$u20$core..fmt..Write$GT$9write_str17h4f289a0bc5411d70E.2295', symObjAddr: 0xB1FE8, symBinAddr: 0xA2958, symSize: 0x80 }
  - { offset: 0x33D6A7, size: 0x8, addend: 0x0, symName: '__ZN58_$LT$alloc..string..String$u20$as$u20$core..fmt..Write$GT$10write_char17hf5eb0556627f32e1E.2296', symObjAddr: 0xB2068, symBinAddr: 0xA29D8, symSize: 0x120 }
  - { offset: 0x33D8D8, size: 0x8, addend: 0x0, symName: '__ZN64_$LT$alloc..ffi..c_str..NulError$u20$as$u20$core..fmt..Debug$GT$3fmt17hb528bfe231df95daE.2279', symObjAddr: 0xB0FFC, symBinAddr: 0xA1A10, symSize: 0x48 }
  - { offset: 0x33DC28, size: 0x8, addend: 0x0, symName: '__ZN5alloc11collections5btree3map25IntoIter$LT$K$C$V$C$A$GT$10dying_next17h80944ebf24a3bbadE', symObjAddr: 0xA3D7C, symBinAddr: 0x94D80, symSize: 0x19C }
  - { offset: 0x33E89F, size: 0x8, addend: 0x0, symName: __ZN6object4read7archive13ArchiveMember5parse17h0cf35c47a3262c28E, symObjAddr: 0x96FD4, symBinAddr: 0x8AC6C, symSize: 0xC60 }
  - { offset: 0x33FE05, size: 0x8, addend: 0x0, symName: '__ZN5gimli4read5dwarf14Dwarf$LT$R$GT$11attr_string17h61d81fbcbee62996E', symObjAddr: 0x9A358, symBinAddr: 0x8C604, symSize: 0x220 }
  - { offset: 0x3405FE, size: 0x8, addend: 0x0, symName: '__ZN5gimli4read5dwarf13Unit$LT$R$GT$3new17h58a22d42e2b88249E', symObjAddr: 0xA5F94, symBinAddr: 0x96E70, symSize: 0x1C4C }
  - { offset: 0x343B5B, size: 0x8, addend: 0x0, symName: '__ZN5gimli4read7aranges30ArangeHeader$LT$R$C$Offset$GT$5parse17h18ec296afb75f086E', symObjAddr: 0xA54EC, symBinAddr: 0x963C8, symSize: 0x2A8 }
  - { offset: 0x3445E3, size: 0x8, addend: 0x0, symName: '__ZN5gimli4read4unit18Attribute$LT$R$GT$5value17hd84235d5f0589f1bE', symObjAddr: 0x9F258, symBinAddr: 0x9025C, symSize: 0x6B8 }
  - { offset: 0x344D32, size: 0x8, addend: 0x0, symName: '__ZN5gimli4read4unit22EntriesCursor$LT$R$GT$10next_entry17h8f756747ff1f8396E', symObjAddr: 0xA4038, symBinAddr: 0x9503C, symSize: 0x2F4 }
  - { offset: 0x3453A1, size: 0x8, addend: 0x0, symName: __ZN5gimli4read4unit15parse_attribute17hc1d74b8eec228250E, symObjAddr: 0x9D11C, symBinAddr: 0x8E120, symSize: 0xF10 }
  - { offset: 0x347F86, size: 0x8, addend: 0x0, symName: '__ZN5gimli4read4unit32AttributeValue$LT$R$C$Offset$GT$11udata_value17ha8d2cb136f47175bE', symObjAddr: 0x9FFAC, symBinAddr: 0x90FB0, symSize: 0x84 }
  - { offset: 0x347F9B, size: 0x8, addend: 0x0, symName: __ZN5gimli4read4unit15skip_attributes17hdc6142efc7264c05E, symObjAddr: 0xA1004, symBinAddr: 0x92008, symSize: 0x5BC }
  - { offset: 0x348973, size: 0x8, addend: 0x0, symName: '__ZN5gimli4read4unit33DebugInfoUnitHeadersIter$LT$R$GT$4next17hb26e96162b5603e4E', symObjAddr: 0xA5960, symBinAddr: 0x9683C, symSize: 0x518 }
  - { offset: 0x349BAA, size: 0x8, addend: 0x0, symName: __ZN5gimli4read6reader6Reader12read_sleb12817he7622149ed2ba8f3E, symObjAddr: 0x995A4, symBinAddr: 0x8B8CC, symSize: 0x23C }
  - { offset: 0x349CAD, size: 0x8, addend: 0x0, symName: __ZN5gimli4read6reader6Reader17read_sized_offset17h56144a8ee82a97f2E, symObjAddr: 0xA2348, symBinAddr: 0x9334C, symSize: 0x10C }
  - { offset: 0x34A046, size: 0x8, addend: 0x0, symName: __ZN5gimli4read6reader6Reader11read_offset17ha6198688e6a6cc43E, symObjAddr: 0xA2454, symBinAddr: 0x93458, symSize: 0xB4 }
  - { offset: 0x34A29B, size: 0x8, addend: 0x0, symName: __ZN5gimli4read6reader6Reader12read_uleb12817hd0ba7762d4f5272cE, symObjAddr: 0xA8A24, symBinAddr: 0x99900, symSize: 0xAC }
  - { offset: 0x34A62B, size: 0x8, addend: 0x0, symName: '__ZN5gimli4read8rnglists20RngListIter$LT$R$GT$4next17hbfe62e2e23855b41E', symObjAddr: 0xA1674, symBinAddr: 0x92678, symSize: 0xC24 }
  - { offset: 0x34CF82, size: 0x8, addend: 0x0, symName: '__ZN5gimli4read5index18UnitIndex$LT$R$GT$5parse17hf42bddb15b37e4adE', symObjAddr: 0xA8010, symBinAddr: 0x98EEC, symSize: 0x6E8 }
  - { offset: 0x34D6A3, size: 0x8, addend: 0x0, symName: '__ZN5gimli4read4line27FileEntry$LT$R$C$Offset$GT$5parse17h809629ae1f90afdcE', symObjAddr: 0xA8F14, symBinAddr: 0x99DF0, symSize: 0x1E8 }
  - { offset: 0x34D9B8, size: 0x8, addend: 0x0, symName: __ZN5gimli4read4line15FileEntryFormat5parse17h8d770897394a1285E, symObjAddr: 0xA8768, symBinAddr: 0x99644, symSize: 0x2BC }
  - { offset: 0x34E141, size: 0x8, addend: 0x0, symName: __ZN5gimli4read4line18parse_directory_v517hb83c7405e582bcc2E, symObjAddr: 0xA8AD0, symBinAddr: 0x999AC, symSize: 0xE4 }
  - { offset: 0x34E1D3, size: 0x8, addend: 0x0, symName: __ZN5gimli4read4line13parse_file_v517h46b7dbdd20cc86bdE, symObjAddr: 0xA8C6C, symBinAddr: 0x99B48, symSize: 0x2A8 }
  - { offset: 0x34E344, size: 0x8, addend: 0x0, symName: __ZN5gimli4read4line15parse_attribute17h8f693dd0ab51bc26E, symObjAddr: 0xA90FC, symBinAddr: 0x99FD8, symSize: 0x810 }
  - { offset: 0x34FF0D, size: 0x8, addend: 0x0, symName: '__ZN9addr2line4unit16ResUnit$LT$R$GT$25find_function_or_location28_$u7b$$u7b$closure$u7d$$u7d$17h0b2560d358ac4418E', symObjAddr: 0x9BB00, symBinAddr: 0x8DD4C, symSize: 0x3D4 }
  - { offset: 0x350266, size: 0x8, addend: 0x0, symName: '__ZN9addr2line4unit16ResUnit$LT$R$GT$25find_function_or_location17hb8c2717196c051f4E', symObjAddr: 0x9B204, symBinAddr: 0x8D4B0, symSize: 0x3B0 }
  - { offset: 0x3507D5, size: 0x8, addend: 0x0, symName: __ZN9addr2line4line11render_file17h6d17362951bb3a0fE, symObjAddr: 0x99D90, symBinAddr: 0x8C0B8, symSize: 0x480 }
  - { offset: 0x351159, size: 0x8, addend: 0x0, symName: '__ZN9addr2line6lookup30LoopingLookup$LT$T$C$L$C$F$GT$10new_lookup17h7be4a3ff02a5568bE', symObjAddr: 0x9B5B4, symBinAddr: 0x8D860, symSize: 0x424 }
  - { offset: 0x351639, size: 0x8, addend: 0x0, symName: '__ZN9addr2line5frame18FrameIter$LT$R$GT$4next17h9c99cb3977d75464E', symObjAddr: 0x96D24, symBinAddr: 0x8A9BC, symSize: 0x2B0 }
  - { offset: 0x351B43, size: 0x8, addend: 0x0, symName: '__ZN9addr2line8function17Function$LT$R$GT$14parse_children17h94e2fbb278f6f4afE', symObjAddr: 0x9E02C, symBinAddr: 0x8F030, symSize: 0x1058 }
  - { offset: 0x35340A, size: 0x8, addend: 0x0, symName: __ZN9addr2line8function9name_attr17h005d1ad1ee1bd9b3E, symObjAddr: 0x9F910, symBinAddr: 0x90914, symSize: 0x284 }
  - { offset: 0x3536EA, size: 0x8, addend: 0x0, symName: __ZN9addr2line8function10name_entry17hdcd9d55faa5b8559E, symObjAddr: 0x9FBEC, symBinAddr: 0x90BF0, symSize: 0x3C0 }
  - { offset: 0x353BA8, size: 0x8, addend: 0x0, symName: _OUTLINED_FUNCTION_0, symObjAddr: 0xB6168, symBinAddr: 0xA6404, symSize: 0xC }
  - { offset: 0x353BC0, size: 0x8, addend: 0x0, symName: _OUTLINED_FUNCTION_1, symObjAddr: 0xB6174, symBinAddr: 0xA6410, symSize: 0x8 }
  - { offset: 0x353BD8, size: 0x8, addend: 0x0, symName: _OUTLINED_FUNCTION_2, symObjAddr: 0xB617C, symBinAddr: 0xA6418, symSize: 0x10 }
  - { offset: 0x353BF0, size: 0x8, addend: 0x0, symName: _OUTLINED_FUNCTION_3, symObjAddr: 0xB618C, symBinAddr: 0xA6428, symSize: 0xC }
  - { offset: 0x353C08, size: 0x8, addend: 0x0, symName: _OUTLINED_FUNCTION_4, symObjAddr: 0xB6198, symBinAddr: 0xA6434, symSize: 0xC }
  - { offset: 0x353C20, size: 0x8, addend: 0x0, symName: _OUTLINED_FUNCTION_5, symObjAddr: 0xB61A4, symBinAddr: 0xA6440, symSize: 0xC }
  - { offset: 0x353C38, size: 0x8, addend: 0x0, symName: _OUTLINED_FUNCTION_6, symObjAddr: 0xB61B0, symBinAddr: 0xA644C, symSize: 0x8 }
  - { offset: 0x353C50, size: 0x8, addend: 0x0, symName: _OUTLINED_FUNCTION_7, symObjAddr: 0xB61B8, symBinAddr: 0xA6454, symSize: 0xC }
  - { offset: 0x353C68, size: 0x8, addend: 0x0, symName: _OUTLINED_FUNCTION_8, symObjAddr: 0xB61C4, symBinAddr: 0xA6460, symSize: 0x10 }
  - { offset: 0x353C80, size: 0x8, addend: 0x0, symName: _OUTLINED_FUNCTION_9, symObjAddr: 0xB61D4, symBinAddr: 0xA6470, symSize: 0x8 }
  - { offset: 0x353C98, size: 0x8, addend: 0x0, symName: _OUTLINED_FUNCTION_10, symObjAddr: 0xB61DC, symBinAddr: 0xA6478, symSize: 0x8 }
  - { offset: 0x353CB0, size: 0x8, addend: 0x0, symName: _OUTLINED_FUNCTION_12, symObjAddr: 0xB61F0, symBinAddr: 0xA648C, symSize: 0x24 }
  - { offset: 0x353CC8, size: 0x8, addend: 0x0, symName: _OUTLINED_FUNCTION_14, symObjAddr: 0xB6228, symBinAddr: 0xA64C4, symSize: 0x20 }
  - { offset: 0x353CE0, size: 0x8, addend: 0x0, symName: _OUTLINED_FUNCTION_15, symObjAddr: 0xB6248, symBinAddr: 0xA64E4, symSize: 0x8 }
  - { offset: 0x353CF8, size: 0x8, addend: 0x0, symName: _OUTLINED_FUNCTION_16, symObjAddr: 0xB6250, symBinAddr: 0xA64EC, symSize: 0x8 }
  - { offset: 0x353D10, size: 0x8, addend: 0x0, symName: _OUTLINED_FUNCTION_17, symObjAddr: 0xB6258, symBinAddr: 0xA64F4, symSize: 0x8 }
  - { offset: 0x353D28, size: 0x8, addend: 0x0, symName: _OUTLINED_FUNCTION_18, symObjAddr: 0xB6260, symBinAddr: 0xA64FC, symSize: 0x8 }
  - { offset: 0x353D40, size: 0x8, addend: 0x0, symName: _OUTLINED_FUNCTION_19, symObjAddr: 0xB6268, symBinAddr: 0xA6504, symSize: 0x8 }
  - { offset: 0x353D58, size: 0x8, addend: 0x0, symName: _OUTLINED_FUNCTION_20, symObjAddr: 0xB6270, symBinAddr: 0xA650C, symSize: 0x8 }
  - { offset: 0x353D70, size: 0x8, addend: 0x0, symName: _OUTLINED_FUNCTION_21, symObjAddr: 0xB6278, symBinAddr: 0xA6514, symSize: 0x10 }
  - { offset: 0x353D88, size: 0x8, addend: 0x0, symName: _OUTLINED_FUNCTION_22, symObjAddr: 0xB6288, symBinAddr: 0xA6524, symSize: 0x10 }
  - { offset: 0x353DA0, size: 0x8, addend: 0x0, symName: _OUTLINED_FUNCTION_23, symObjAddr: 0xB6298, symBinAddr: 0xA6534, symSize: 0x10 }
  - { offset: 0x353DB8, size: 0x8, addend: 0x0, symName: _OUTLINED_FUNCTION_24, symObjAddr: 0xB62A8, symBinAddr: 0xA6544, symSize: 0xC }
  - { offset: 0x353DD0, size: 0x8, addend: 0x0, symName: _OUTLINED_FUNCTION_25, symObjAddr: 0xB62B4, symBinAddr: 0xA6550, symSize: 0x10 }
  - { offset: 0x353DE8, size: 0x8, addend: 0x0, symName: _OUTLINED_FUNCTION_26, symObjAddr: 0xB62C4, symBinAddr: 0xA6560, symSize: 0x18 }
  - { offset: 0x353E00, size: 0x8, addend: 0x0, symName: _OUTLINED_FUNCTION_27, symObjAddr: 0xB62DC, symBinAddr: 0xA6578, symSize: 0x18 }
  - { offset: 0x353E18, size: 0x8, addend: 0x0, symName: _OUTLINED_FUNCTION_29, symObjAddr: 0xB630C, symBinAddr: 0xA65A8, symSize: 0xC }
  - { offset: 0x353E30, size: 0x8, addend: 0x0, symName: _OUTLINED_FUNCTION_30, symObjAddr: 0xB6318, symBinAddr: 0xA65B4, symSize: 0x8 }
  - { offset: 0x353E48, size: 0x8, addend: 0x0, symName: _OUTLINED_FUNCTION_31, symObjAddr: 0xB6320, symBinAddr: 0xA65BC, symSize: 0xC }
  - { offset: 0x353E60, size: 0x8, addend: 0x0, symName: _OUTLINED_FUNCTION_32, symObjAddr: 0xB632C, symBinAddr: 0xA65C8, symSize: 0xC }
  - { offset: 0x353E78, size: 0x8, addend: 0x0, symName: _OUTLINED_FUNCTION_33, symObjAddr: 0xB6338, symBinAddr: 0xA65D4, symSize: 0x8 }
  - { offset: 0x353E90, size: 0x8, addend: 0x0, symName: _OUTLINED_FUNCTION_34, symObjAddr: 0xB6340, symBinAddr: 0xA65DC, symSize: 0xC }
  - { offset: 0x353EA8, size: 0x8, addend: 0x0, symName: _OUTLINED_FUNCTION_35, symObjAddr: 0xB634C, symBinAddr: 0xA65E8, symSize: 0xC }
  - { offset: 0x353EC0, size: 0x8, addend: 0x0, symName: _OUTLINED_FUNCTION_36, symObjAddr: 0xB6358, symBinAddr: 0xA65F4, symSize: 0x8 }
  - { offset: 0x353ED8, size: 0x8, addend: 0x0, symName: _OUTLINED_FUNCTION_37, symObjAddr: 0xB6360, symBinAddr: 0xA65FC, symSize: 0xC }
  - { offset: 0x353EF0, size: 0x8, addend: 0x0, symName: _OUTLINED_FUNCTION_38, symObjAddr: 0xB636C, symBinAddr: 0xA6608, symSize: 0xC }
  - { offset: 0x353F08, size: 0x8, addend: 0x0, symName: _OUTLINED_FUNCTION_39, symObjAddr: 0xB6378, symBinAddr: 0xA6614, symSize: 0x8 }
  - { offset: 0x353F20, size: 0x8, addend: 0x0, symName: _OUTLINED_FUNCTION_41, symObjAddr: 0xB6388, symBinAddr: 0xA6624, symSize: 0xC }
  - { offset: 0x353F38, size: 0x8, addend: 0x0, symName: _OUTLINED_FUNCTION_42, symObjAddr: 0xB6394, symBinAddr: 0xA6630, symSize: 0xC }
  - { offset: 0x353F50, size: 0x8, addend: 0x0, symName: _OUTLINED_FUNCTION_43, symObjAddr: 0xB63A0, symBinAddr: 0xA663C, symSize: 0xC }
  - { offset: 0x353F68, size: 0x8, addend: 0x0, symName: _OUTLINED_FUNCTION_44, symObjAddr: 0xB63AC, symBinAddr: 0xA6648, symSize: 0x10 }
  - { offset: 0x353F80, size: 0x8, addend: 0x0, symName: _OUTLINED_FUNCTION_45, symObjAddr: 0xB63BC, symBinAddr: 0xA6658, symSize: 0x14 }
  - { offset: 0x353F98, size: 0x8, addend: 0x0, symName: _OUTLINED_FUNCTION_46, symObjAddr: 0xB63D0, symBinAddr: 0xA666C, symSize: 0x14 }
  - { offset: 0x353FB0, size: 0x8, addend: 0x0, symName: _OUTLINED_FUNCTION_47, symObjAddr: 0xB63E4, symBinAddr: 0xA6680, symSize: 0x14 }
  - { offset: 0x2F5A2F, size: 0x8, addend: 0x0, symName: __RNvCskdKJRKLKjqM_7___rustc18___rust_start_panic, symObjAddr: 0x70770, symBinAddr: 0x69330, symSize: 0x9C }
  - { offset: 0x2F5AFD, size: 0x8, addend: 0x0, symName: __ZN12panic_unwind3imp5panic17exception_cleanup17h4266e266b2c9487cE, symObjAddr: 0x70884, symBinAddr: 0x69444, symSize: 0x18 }
  - { offset: 0x2F5B26, size: 0x8, addend: 0x0, symName: __RNvCskdKJRKLKjqM_7___rustc18___rust_start_panic, symObjAddr: 0x70770, symBinAddr: 0x69330, symSize: 0x9C }
  - { offset: 0x2F5BD5, size: 0x8, addend: 0x0, symName: '__ZN4core3ptr49drop_in_place$LT$panic_unwind..imp..Exception$GT$17haf5bf9a577d18351E', symObjAddr: 0x7080C, symBinAddr: 0x693CC, symSize: 0x78 }
  - { offset: 0x2F5CDB, size: 0x8, addend: 0x0, symName: '__ZN4core3ptr74drop_in_place$LT$alloc..boxed..Box$LT$panic_unwind..imp..Exception$GT$$GT$17hfb07d84a22c2fe57E', symObjAddr: 0x7089C, symBinAddr: 0x6945C, symSize: 0x88 }
  - { offset: 0x2D7CCC, size: 0x8, addend: 0x0, symName: __ZN10serde_json2de12ParserNumber12invalid_type17h7816a9240d6053d1E, symObjAddr: 0x8AEF4, symBinAddr: 0x7FD00, symSize: 0x60 }
  - { offset: 0x2D7CF2, size: 0x8, addend: 0x0, symName: __ZN10serde_json2de5POW1017h5cf2a4940467c4b3E, symObjAddr: 0xC93B8, symBinAddr: 0xC2570, symSize: 0x0 }
  - { offset: 0x2D7F29, size: 0x8, addend: 0x0, symName: __ZN10serde_json3ser6ESCAPE17ha03d3a07e366477eE, symObjAddr: 0xC92A2, symBinAddr: 0xC245A, symSize: 0x0 }
  - { offset: 0x2D7F4F, size: 0x8, addend: 0x0, symName: __ZN10serde_json3ser9Formatter17write_char_escape10HEX_DIGITS17hcc74407f3bd8f50eE, symObjAddr: 0xC93A2, symBinAddr: 0xC255A, symSize: 0x0 }
  - { offset: 0x2D7F73, size: 0x8, addend: 0x0, symName: __ZN10serde_json4read4HEX017h8d453c92affdefd0E, symObjAddr: 0xC9D60, symBinAddr: 0xC2F18, symSize: 0x0 }
  - { offset: 0x2D7F8F, size: 0x8, addend: 0x0, symName: __ZN10serde_json4read4HEX117he48d3ce7117e6bfaE, symObjAddr: 0xC9F60, symBinAddr: 0xC3118, symSize: 0x0 }
  - { offset: 0x2D8044, size: 0x8, addend: 0x0, symName: '__ZN68_$LT$serde_json..read..StrRead$u20$as$u20$serde_json..read..Read$GT$9parse_str17hcc7b29df602808ebE', symObjAddr: 0x8CE38, symBinAddr: 0x814F4, symSize: 0x2EC }
  - { offset: 0x2D8CAE, size: 0x8, addend: 0x0, symName: '__ZN70_$LT$serde_json..read..SliceRead$u20$as$u20$serde_json..read..Read$GT$10ignore_str17h8975f8fb804cf8c4E', symObjAddr: 0x8D9FC, symBinAddr: 0x81A6C, symSize: 0x310 }
  - { offset: 0x2D91BB, size: 0x8, addend: 0x0, symName: '__ZN70_$LT$serde_json..read..SliceRead$u20$as$u20$serde_json..read..Read$GT$9parse_str17h699c7eacabda58a3E', symObjAddr: 0x8DD0C, symBinAddr: 0x81D7C, symSize: 0x380 }
  - { offset: 0x2D9DB9, size: 0x8, addend: 0x0, symName: __ZN10serde_json4read5error17h36d73114741872acE, symObjAddr: 0x8D164, symBinAddr: 0xB28C8, symSize: 0x64 }
  - { offset: 0x2D9E9D, size: 0x8, addend: 0x0, symName: __ZN10serde_json4read12parse_escape17h7cacd8384fa47425E, symObjAddr: 0x8D1C8, symBinAddr: 0x817E0, symSize: 0x28C }
  - { offset: 0x2DA86E, size: 0x8, addend: 0x0, symName: __ZN10serde_json4read5error17h4c664476c5d35d4cE, symObjAddr: 0x8D454, symBinAddr: 0xB292C, symSize: 0x68 }
  - { offset: 0x2DA8FD, size: 0x8, addend: 0x0, symName: __ZN10serde_json4read5error17h7d82b39d07423280E, symObjAddr: 0x8D4BC, symBinAddr: 0xB2994, symSize: 0x58 }
  - { offset: 0x2DAAB3, size: 0x8, addend: 0x0, symName: __ZN10serde_json4read20parse_unicode_escape17he05ecadf03af126cE, symObjAddr: 0x8D514, symBinAddr: 0xB29EC, symSize: 0x410 }
  - { offset: 0x2DB59F, size: 0x8, addend: 0x0, symName: __ZN10serde_json4read5error17hd269ae546e800c99E, symObjAddr: 0x8D924, symBinAddr: 0xB2DFC, symSize: 0x68 }
  - { offset: 0x2DB714, size: 0x8, addend: 0x0, symName: __ZN10serde_json4read5error17h70b31f06c97a004cE, symObjAddr: 0x8E08C, symBinAddr: 0xB2ED4, symSize: 0x60 }
  - { offset: 0x2DBA6A, size: 0x8, addend: 0x0, symName: '__ZN66_$LT$serde_json..error..Error$u20$as$u20$serde_core..de..Error$GT$12invalid_type17hdf525de71aa2a88bE', symObjAddr: 0x8AF54, symBinAddr: 0xB2138, symSize: 0x70 }
  - { offset: 0x2DBB0E, size: 0x8, addend: 0x0, symName: '__ZN66_$LT$serde_json..error..Error$u20$as$u20$serde_core..de..Error$GT$6custom17h692df6fbf703e8f5E', symObjAddr: 0x8B29C, symBinAddr: 0xB21A8, symSize: 0xF0 }
  - { offset: 0x2DBF26, size: 0x8, addend: 0x0, symName: '__ZN66_$LT$serde_json..error..Error$u20$as$u20$serde_core..de..Error$GT$13invalid_value17h6ea5b6a326213289E', symObjAddr: 0x8D98C, symBinAddr: 0xB2E64, symSize: 0x70 }
  - { offset: 0x2DBFD1, size: 0x8, addend: 0x0, symName: '__ZN72_$LT$serde_json..error..JsonUnexpected$u20$as$u20$core..fmt..Display$GT$3fmt17h505a5b9d9dbb6a52E', symObjAddr: 0x8AFC4, symBinAddr: 0x7FD60, symSize: 0x2C8 }
  - { offset: 0x2DC376, size: 0x8, addend: 0x0, symName: __ZN10serde_json5error10make_error17hd2ea73ef6dafcfe3E, symObjAddr: 0x8B38C, symBinAddr: 0x80038, symSize: 0x820 }
  - { offset: 0x2DD629, size: 0x8, addend: 0x0, symName: '__ZN63_$LT$serde_json..error..Error$u20$as$u20$core..fmt..Display$GT$3fmt17h0fa9c74361a619f3E', symObjAddr: 0x8CA5C, symBinAddr: 0x81224, symSize: 0x74 }
  - { offset: 0x2DD6A5, size: 0x8, addend: 0x0, symName: '__ZN67_$LT$serde_json..error..ErrorCode$u20$as$u20$core..fmt..Display$GT$3fmt17h2ade29ceb604613fE', symObjAddr: 0x8CAD0, symBinAddr: 0x81298, symSize: 0x25C }
  - { offset: 0x2DE479, size: 0x8, addend: 0x0, symName: '__ZN5alloc7raw_vec20RawVecInner$LT$A$GT$7reserve21do_reserve_and_handle17h2995ef5e3484b8ecE', symObjAddr: 0x8CD2C, symBinAddr: 0xB277C, symSize: 0xA8 }
  - { offset: 0x2DE840, size: 0x8, addend: 0x0, symName: __ZN5alloc7raw_vec11finish_grow17h1aafc667d83e5bfdE, symObjAddr: 0x8CDD4, symBinAddr: 0xB2824, symSize: 0x64 }
  - { offset: 0x2DF324, size: 0x8, addend: 0x0, symName: '__ZN4core3ptr49drop_in_place$LT$serde_json..error..ErrorCode$GT$17h1ab217fbb812eba4E', symObjAddr: 0x8BBAC, symBinAddr: 0x80858, symSize: 0xCC }
  - { offset: 0x2E05DB, size: 0x8, addend: 0x0, symName: '__ZN44_$LT$$RF$T$u20$as$u20$core..fmt..Display$GT$3fmt17h11385d3ea66d102dE', symObjAddr: 0x8B28C, symBinAddr: 0x80028, symSize: 0x10 }
  - { offset: 0x2E2DEC, size: 0x8, addend: 0x0, symName: __ZN10serde_json2de12ParserNumber12invalid_type17h7816a9240d6053d1E, symObjAddr: 0x8AEF4, symBinAddr: 0x7FD00, symSize: 0x60 }
  - { offset: 0x2E3DCD, size: 0x8, addend: 0x0, symName: '__ZN10serde_json2de21Deserializer$LT$R$GT$18parse_long_integer17h998f44b94b04f92cE', symObjAddr: 0x8BC78, symBinAddr: 0xB2298, symSize: 0x28C }
  - { offset: 0x2E4216, size: 0x8, addend: 0x0, symName: '__ZN10serde_json2de21Deserializer$LT$R$GT$23parse_exponent_overflow17h0d7988a2c963ea1cE', symObjAddr: 0x8BF04, symBinAddr: 0xB2524, symSize: 0x9C }
  - { offset: 0x2E4340, size: 0x8, addend: 0x0, symName: '__ZN10serde_json2de21Deserializer$LT$R$GT$22parse_decimal_overflow17h2caa7f133d37efafE', symObjAddr: 0x8BFA0, symBinAddr: 0xB25C0, symSize: 0x140 }
  - { offset: 0x2E5225, size: 0x8, addend: 0x0, symName: __ZN10serde_json4read9SliceRead17position_of_index17h46ff23a2c272b992E, symObjAddr: 0x8C0E0, symBinAddr: 0x80924, symSize: 0x900 }
  - { offset: 0x2E67E7, size: 0x8, addend: 0x0, symName: __ZN10serde_json5error5Error6syntax17h1e1d53db190102e6E, symObjAddr: 0x8C9E0, symBinAddr: 0xB2700, symSize: 0x7C }
  - { offset: 0x2E713D, size: 0x8, addend: 0x0, symName: __ZN10serde_json4read9SliceRead19skip_to_escape_slow17hb7ef31575c4f3b20E, symObjAddr: 0x8D124, symBinAddr: 0xB2888, symSize: 0x40 }
  - { offset: 0x295A71, size: 0x8, addend: 0x0, symName: '__ZN4core3ptr50drop_in_place$LT$pyo3_ffi..pystate..HangThread$GT$17hff6f2e7aafc681c4E', symObjAddr: 0x7D73C, symBinAddr: 0x73878, symSize: 0x10 }
  - { offset: 0x295D03, size: 0x8, addend: 0x0, symName: '__ZN4core3ptr50drop_in_place$LT$pyo3_ffi..pystate..HangThread$GT$17hff6f2e7aafc681c4E', symObjAddr: 0x7D73C, symBinAddr: 0x73878, symSize: 0x10 }
  - { offset: 0x353FE6, size: 0x8, addend: 0x0, symName: ___powidf2, symObjAddr: 0x0, symBinAddr: 0xA6694, symSize: 0x48 }
  - { offset: 0x354008, size: 0x8, addend: 0x0, symName: ___powidf2, symObjAddr: 0x0, symBinAddr: 0xA6694, symSize: 0x48 }
  - { offset: 0x354022, size: 0x8, addend: 0x0, symName: ___powidf2, symObjAddr: 0x0, symBinAddr: 0xA6694, symSize: 0x48 }
  - { offset: 0x354037, size: 0x8, addend: 0x0, symName: ___powidf2, symObjAddr: 0x0, symBinAddr: 0xA6694, symSize: 0x48 }
  - { offset: 0x35404B, size: 0x8, addend: 0x0, symName: ___powidf2, symObjAddr: 0x0, symBinAddr: 0xA6694, symSize: 0x48 }
  - { offset: 0x35405F, size: 0x8, addend: 0x0, symName: ___powidf2, symObjAddr: 0x0, symBinAddr: 0xA6694, symSize: 0x48 }
...
